EXPORTS 
	??_R0?AU_Crt_new_delete@std@@@8 	 DATA
	??_R0?AV?$_Func_base@PEAUggml_cgraph@@$$V@std@@@8 	 DATA
	??_R0?AV?$_Iosb@H@std@@@8 	 DATA
	??_R0?AV?$_Node_class@DV?$regex_traits@D@std@@@std@@@8 	 DATA
	??_R0?AV?$_Node_str@D@std@@@8 	 DATA
	??_R0?AV?$basic_filebuf@DU?$char_traits@D@std@@@std@@@8 	 DATA
	??_R0?AV?$basic_ifstream@DU?$char_traits@D@std@@@std@@@8 	 DATA
	??_R0?AV?$basic_ios@DU?$char_traits@D@std@@@std@@@8 	 DATA
	??_R0?AV?$basic_istream@DU?$char_traits@D@std@@@std@@@8 	 DATA
	??_R0?AV?$basic_ofstream@DU?$char_traits@D@std@@@std@@@8 	 DATA
	??_R0?AV?$basic_ostream@DU?$char_traits@D@std@@@std@@@8 	 DATA
	??_R0?AV?$basic_streambuf@DU?$char_traits@D@std@@@std@@@8 	 DATA
	??_R0?AV?$codecvt@_WDU_Mbstatet@@@std@@@8 	 DATA
	??_R0?AV?$codecvt_utf8@_W$0BAPPPP@$0A@@std@@@8 	 DATA
	??_R0?AV?$collate@D@std@@@8 	 DATA
	??_R0?AV?$wstring_convert@V?$codecvt_utf8@_W$0BAPPPP@$0A@@std@@_WV?$allocator@_W@2@V?$allocator@D@2@@std@@@8 	 DATA
	??_R0?AV_Facet_base@std@@@8 	 DATA
	??_R0?AV_Node_assert@std@@@8 	 DATA
	??_R0?AV_Node_back@std@@@8 	 DATA
	??_R0?AV_Node_base@std@@@8 	 DATA
	??_R0?AV_Node_capture@std@@@8 	 DATA
	??_R0?AV_Node_end_group@std@@@8 	 DATA
	??_R0?AV_Node_end_rep@std@@@8 	 DATA
	??_R0?AV_Node_endif@std@@@8 	 DATA
	??_R0?AV_Node_if@std@@@8 	 DATA
	??_R0?AV_Node_rep@std@@@8 	 DATA
	??_R0?AV_Root_node@std@@@8 	 DATA
	??_R0?AVbad_alloc@std@@@8 	 DATA
	??_R0?AVbad_array_new_length@std@@@8 	 DATA
	??_R0?AVbad_cast@std@@@8 	 DATA
	??_R0?AVcodecvt_base@std@@@8 	 DATA
	??_R0?AVexception@std@@@8 	 DATA
	??_R0?AVfacet@locale@std@@@8 	 DATA
	??_R0?AVios_base@std@@@8 	 DATA
	??_R0?AVrange_error@std@@@8 	 DATA
	??_R0?AVruntime_error@std@@@8 	 DATA
	?_OptionsStorage@?1??__local_stdio_printf_options@@9@4_KA 	 DATA
	?_Psave@?$_Facetptr@V?$codecvt@DDU_Mbstatet@@@std@@@std@@2PEBVfacet@locale@2@EB 	 DATA
	?_Psave@?$_Facetptr@V?$collate@D@std@@@std@@2PEBVfacet@locale@2@EB 	 DATA
	?_Psave@?$_Facetptr@V?$ctype@D@std@@@std@@2PEBVfacet@locale@2@EB 	 DATA
	?_Stinit@?1??_Init@?$basic_filebuf@DU?$char_traits@D@std@@@std@@IEAAXPEAU_iobuf@@W4_Initfl@23@@Z@4U_Mbstatet@@A 	 DATA
	??$?0$$CBV?$basic_string@DU?$char_traits@D@std@@V?$allocator@D@2@@std@@U?$pair@HV?$basic_string@DU?$char_traits@D@std@@V?$allocator@D@2@@std@@@1@$0A@@?$pair@$$CBV?$basic_string@DU?$char_traits@D@std@@V?$allocator@D@2@@std@@U?$pair@HV?$basic_string@DU?$char_traits@D@std@@V?$allocator@D@2@@std@@@2@@std@@QEAA@AEBV?$basic_string@DU?$char_traits@D@std@@V?$allocator@D@2@@1@AEBU?$pair@HV?$basic_string@DU?$char_traits@D@std@@V?$allocator@D@2@@std@@@1@@Z
	??$?0HAEAY03$$CBD$0A@@?$pair@HV?$basic_string@DU?$char_traits@D@std@@V?$allocator@D@2@@std@@@std@@QEAA@$$QEAHAEAY03$$CBD@Z
	??$?0HAEAY05$$CBD$0A@@?$pair@HV?$basic_string@DU?$char_traits@D@std@@V?$allocator@D@2@@std@@@std@@QEAA@$$QEAHAEAY05$$CBD@Z
	??$?0HAEAY06$$CBD$0A@@?$pair@HV?$basic_string@DU?$char_traits@D@std@@V?$allocator@D@2@@std@@@std@@QEAA@$$QEAHAEAY06$$CBD@Z
	??$?0HAEAY07$$CBD$0A@@?$pair@HV?$basic_string@DU?$char_traits@D@std@@V?$allocator@D@2@@std@@@std@@QEAA@$$QEAHAEAY07$$CBD@Z
	??$?0HAEAY08$$CBD$0A@@?$pair@HV?$basic_string@DU?$char_traits@D@std@@V?$allocator@D@2@@std@@@std@@QEAA@$$QEAHAEAY08$$CBD@Z
	??$?0HAEAY09$$CBD$0A@@?$pair@HV?$basic_string@DU?$char_traits@D@std@@V?$allocator@D@2@@std@@@std@@QEAA@$$QEAHAEAY09$$CBD@Z
	??$?0HAEAY0L@$$CBD$0A@@?$pair@HV?$basic_string@DU?$char_traits@D@std@@V?$allocator@D@2@@std@@@std@@QEAA@$$QEAHAEAY0L@$$CBD@Z
	??$?0HAEAY0M@$$CBD$0A@@?$pair@HV?$basic_string@DU?$char_traits@D@std@@V?$allocator@D@2@@std@@@std@@QEAA@$$QEAHAEAY0M@$$CBD@Z
	??$?0HAEAY0O@$$CBD$0A@@?$pair@HV?$basic_string@DU?$char_traits@D@std@@V?$allocator@D@2@@std@@@std@@QEAA@$$QEAHAEAY0O@$$CBD@Z
	??$?0HAEAY0P@$$CBD$0A@@?$pair@HV?$basic_string@DU?$char_traits@D@std@@V?$allocator@D@2@@std@@@std@@QEAA@$$QEAHAEAY0P@$$CBD@Z
	??$?0V?$_Vector_const_iterator@V?$_Vector_val@U?$_Simple_types@M@std@@@std@@@std@@@?$discrete_distribution@H@std@@QEAA@V?$_Vector_const_iterator@V?$_Vector_val@U?$_Simple_types@M@std@@@std@@@1@0@Z
	??$?6U?$char_traits@D@std@@@std@@YAAEAV?$basic_ostream@DU?$char_traits@D@std@@@0@AEAV10@PEBD@Z
	??$?HDU?$char_traits@D@std@@V?$allocator@D@1@@std@@YA?AV?$basic_string@DU?$char_traits@D@std@@V?$allocator@D@2@@0@QEBD$$QEAV10@@Z
	??$?MDU?$char_traits@D@std@@V?$allocator@D@1@@std@@YA_NAEBV?$basic_string@DU?$char_traits@D@std@@V?$allocator@D@2@@0@0@Z
	??$_Allocate@$0BA@U_Default_allocate_traits@std@@$0A@@std@@YAPEAX_K@Z
	??$_Allocate_manually_vector_aligned@U_Default_allocate_traits@std@@@std@@YAPEAX_K@Z
	??$_Assign_range@PEAV?$vector@PEBUwhisper_grammar_element@@V?$allocator@PEBUwhisper_grammar_element@@@std@@@std@@@?$vector@V?$vector@PEBUwhisper_grammar_element@@V?$allocator@PEBUwhisper_grammar_element@@@std@@@std@@V?$allocator@V?$vector@PEBUwhisper_grammar_element@@V?$allocator@PEBUwhisper_grammar_element@@@std@@@std@@@2@@std@@AEAAXPEAV?$vector@PEBUwhisper_grammar_element@@V?$allocator@PEBUwhisper_grammar_element@@@std@@@1@0Uforward_iterator_tag@1@@Z
	??$_Assign_range@PEAV?$vector@Uwhisper_grammar_element@@V?$allocator@Uwhisper_grammar_element@@@std@@@std@@@?$vector@V?$vector@Uwhisper_grammar_element@@V?$allocator@Uwhisper_grammar_element@@@std@@@std@@V?$allocator@V?$vector@Uwhisper_grammar_element@@V?$allocator@Uwhisper_grammar_element@@@std@@@std@@@2@@std@@AEAAXPEAV?$vector@Uwhisper_grammar_element@@V?$allocator@Uwhisper_grammar_element@@@std@@@1@0Uforward_iterator_tag@1@@Z
	??$_Atomic_address_as@JU?$_Atomic_padded@H@std@@@std@@YAPECJAEAU?$_Atomic_padded@H@0@@Z
	??$_Cmp_chrange@PEBDPEBDU?$_Cmp_collate@V?$regex_traits@D@std@@@std@@@std@@YAPEBDPEBD000U?$_Cmp_collate@V?$regex_traits@D@std@@@0@@Z
	??$_Cmp_chrange@PEBDPEBDU?$_Cmp_cs@V?$regex_traits@D@std@@@std@@@std@@YAPEBDPEBD000U?$_Cmp_cs@V?$regex_traits@D@std@@@0@@Z
	??$_Cmp_chrange@PEBDPEBDU?$_Cmp_icase@V?$regex_traits@D@std@@@std@@@std@@YAPEBDPEBD000U?$_Cmp_icase@V?$regex_traits@D@std@@@0@@Z
	??$_Cmp_chrange@V?$_String_const_iterator@V?$_String_val@U?$_Simple_types@D@std@@@std@@@std@@PEBDU?$_Cmp_collate@V?$regex_traits@D@std@@@2@@std@@YA?AV?$_String_const_iterator@V?$_String_val@U?$_Simple_types@D@std@@@std@@@0@V10@0PEBD1U?$_Cmp_collate@V?$regex_traits@D@std@@@0@@Z
	??$_Cmp_chrange@V?$_String_const_iterator@V?$_String_val@U?$_Simple_types@D@std@@@std@@@std@@PEBDU?$_Cmp_cs@V?$regex_traits@D@std@@@2@@std@@YA?AV?$_String_const_iterator@V?$_String_val@U?$_Simple_types@D@std@@@std@@@0@V10@0PEBD1U?$_Cmp_cs@V?$regex_traits@D@std@@@0@@Z
	??$_Cmp_chrange@V?$_String_const_iterator@V?$_String_val@U?$_Simple_types@D@std@@@std@@@std@@PEBDU?$_Cmp_icase@V?$regex_traits@D@std@@@2@@std@@YA?AV?$_String_const_iterator@V?$_String_val@U?$_Simple_types@D@std@@@std@@@0@V10@0PEBD1U?$_Cmp_icase@V?$regex_traits@D@std@@@0@@Z
	??$_Cmp_chrange@V?$_String_const_iterator@V?$_String_val@U?$_Simple_types@D@std@@@std@@@std@@V12@U?$_Cmp_collate@V?$regex_traits@D@std@@@2@@std@@YA?AV?$_String_const_iterator@V?$_String_val@U?$_Simple_types@D@std@@@std@@@0@V10@000U?$_Cmp_collate@V?$regex_traits@D@std@@@0@@Z
	??$_Cmp_chrange@V?$_String_const_iterator@V?$_String_val@U?$_Simple_types@D@std@@@std@@@std@@V12@U?$_Cmp_cs@V?$regex_traits@D@std@@@2@@std@@YA?AV?$_String_const_iterator@V?$_String_val@U?$_Simple_types@D@std@@@std@@@0@V10@000U?$_Cmp_cs@V?$regex_traits@D@std@@@0@@Z
	??$_Cmp_chrange@V?$_String_const_iterator@V?$_String_val@U?$_Simple_types@D@std@@@std@@@std@@V12@U?$_Cmp_icase@V?$regex_traits@D@std@@@2@@std@@YA?AV?$_String_const_iterator@V?$_String_val@U?$_Simple_types@D@std@@@std@@@0@V10@000U?$_Cmp_icase@V?$regex_traits@D@std@@@0@@Z
	??$_Codecvt_do_length@V?$codecvt_utf8@_W$0BAPPPP@$0A@@std@@DU_Mbstatet@@@std@@YAHAEBV?$codecvt_utf8@_W$0BAPPPP@$0A@@0@AEAU_Mbstatet@@PEBD2_K@Z
	??$_Compare@PEBDPEBDV?$regex_traits@D@std@@@std@@YAPEBDPEBD000AEBV?$regex_traits@D@0@W4syntax_option_type@regex_constants@0@@Z
	??$_Compare@V?$_String_const_iterator@V?$_String_val@U?$_Simple_types@D@std@@@std@@@std@@PEBDV?$regex_traits@D@2@@std@@YA?AV?$_String_const_iterator@V?$_String_val@U?$_Simple_types@D@std@@@std@@@0@V10@0PEBD1AEBV?$regex_traits@D@0@W4syntax_option_type@regex_constants@0@@Z
	??$_Compare@V?$_String_const_iterator@V?$_String_val@U?$_Simple_types@D@std@@@std@@@std@@V12@V?$regex_traits@D@2@@std@@YA?AV?$_String_const_iterator@V?$_String_val@U?$_Simple_types@D@std@@@std@@@0@V10@000AEBV?$regex_traits@D@0@W4syntax_option_type@regex_constants@0@@Z
	??$_Copy_backward_memmove@PEAHPEAH@std@@YAPEAHPEAH00@Z
	??$_Copy_backward_memmove@PEAMPEAM@std@@YAPEAMPEAM00@Z
	??$_Copy_backward_memmove@PEAU?$whisper_pair@NH@@PEAU1@@std@@YAPEAU?$whisper_pair@NH@@PEAU1@00@Z
	??$_Copy_backward_memmove@PEAUwhisper_token_data@@PEAU1@@std@@YAPEAUwhisper_token_data@@PEAU1@00@Z
	??$_Copy_memmove@PEADPEAD@std@@YAPEADPEAD00@Z
	??$_Copy_memmove@PEAEPEAE@std@@YAPEAEPEAE00@Z
	??$_Copy_memmove@PEAHPEAH@std@@YAPEAHPEAH00@Z
	??$_Copy_memmove@PEAIPEAI@std@@YAPEAIPEAI00@Z
	??$_Copy_memmove@PEAMPEAM@std@@YAPEAMPEAM00@Z
	??$_Copy_memmove@PEANPEAN@std@@YAPEANPEAN00@Z
	??$_Copy_memmove@PEAPEAUggml_backend@@PEAPEAU1@@std@@YAPEAPEAUggml_backend@@PEAPEAU1@00@Z
	??$_Copy_memmove@PEAPEAUggml_backend_buffer@@PEAPEAU1@@std@@YAPEAPEAUggml_backend_buffer@@PEAPEAU1@00@Z
	??$_Copy_memmove@PEAPEAUggml_context@@PEAPEAU1@@std@@YAPEAPEAUggml_context@@PEAPEAU1@00@Z
	??$_Copy_memmove@PEAPEAUggml_tensor@@PEAPEAU1@@std@@YAPEAPEAUggml_tensor@@PEAPEAU1@00@Z
	??$_Copy_memmove@PEAPEAUwhisper_state@@PEAPEAU1@@std@@YAPEAPEAUwhisper_state@@PEAPEAU1@00@Z
	??$_Copy_memmove@PEAPEBUwhisper_grammar_element@@PEAPEBU1@@std@@YAPEAPEBUwhisper_grammar_element@@PEAPEBU1@00@Z
	??$_Copy_memmove@PEAU_Grp_t@?$_Tgt_state_t@PEBD@std@@PEAU123@@std@@YAPEAU_Grp_t@?$_Tgt_state_t@PEBD@0@PEAU120@00@Z
	??$_Copy_memmove@PEAU_Grp_t@?$_Tgt_state_t@V?$_String_const_iterator@V?$_String_val@U?$_Simple_types@D@std@@@std@@@std@@@std@@PEAU123@@std@@YAPEAU_Grp_t@?$_Tgt_state_t@V?$_String_const_iterator@V?$_String_val@U?$_Simple_types@D@std@@@std@@@std@@@0@PEAU120@00@Z
	??$_Copy_memmove@PEAU_Loop_vals_t@std@@PEAU12@@std@@YAPEAU_Loop_vals_t@0@PEAU10@00@Z
	??$_Copy_memmove@PEAUvad_segment_info@whisper_state@@PEAU12@@std@@YAPEAUvad_segment_info@whisper_state@@PEAU12@00@Z
	??$_Copy_memmove@PEAUwhisper_grammar_candidate@@PEAU1@@std@@YAPEAUwhisper_grammar_candidate@@PEAU1@00@Z
	??$_Copy_memmove@PEAUwhisper_grammar_element@@PEAU1@@std@@YAPEAUwhisper_grammar_element@@PEAU1@00@Z
	??$_Copy_memmove@PEAUwhisper_layer_decoder@@PEAU1@@std@@YAPEAUwhisper_layer_decoder@@PEAU1@00@Z
	??$_Copy_memmove@PEAUwhisper_layer_encoder@@PEAU1@@std@@YAPEAUwhisper_layer_encoder@@PEAU1@00@Z
	??$_Copy_memmove@PEAUwhisper_token_data@@PEAU1@@std@@YAPEAUwhisper_token_data@@PEAU1@00@Z
	??$_Copy_memmove@PEAUwhisper_vad_segment@@PEAU1@@std@@YAPEAUwhisper_vad_segment@@PEAU1@00@Z
	??$_Copy_memmove@PEBDPEAD@std@@YAPEADPEBD0PEAD@Z
	??$_Copy_memmove@PEBHPEAH@std@@YAPEAHPEBH0PEAH@Z
	??$_Copy_memmove@PEBMPEAM@std@@YAPEAMPEBM0PEAM@Z
	??$_Copy_memmove@PEBQEBUwhisper_grammar_element@@PEAPEBU1@@std@@YAPEAPEBUwhisper_grammar_element@@PEBQEBU1@0PEAPEBU1@@Z
	??$_Copy_memmove@PEB_KPEA_K@std@@YAPEA_KPEB_K0PEA_K@Z
	??$_Copy_nodes@U_Copy_tag@?$_Tree@V?$_Tmap_traits@W4asr_tensor@@PEBDU?$less@W4asr_tensor@@@std@@V?$allocator@U?$pair@$$CBW4asr_tensor@@PEBD@std@@@3@$0A@@std@@@std@@@?$_Tree@V?$_Tmap_traits@W4asr_tensor@@PEBDU?$less@W4asr_tensor@@@std@@V?$allocator@U?$pair@$$CBW4asr_tensor@@PEBD@std@@@3@$0A@@std@@@std@@IEAAPEAU?$_Tree_node@U?$pair@$$CBW4asr_tensor@@PEBD@std@@PEAX@1@PEAU21@0U_Copy_tag@01@@Z
	??$_Copy_nodes@U_Copy_tag@?$_Tree@V?$_Tset_traits@HU?$less@H@std@@V?$allocator@H@2@$0A@@std@@@std@@@?$_Tree@V?$_Tset_traits@HU?$less@H@std@@V?$allocator@H@2@$0A@@std@@@std@@IEAAPEAU?$_Tree_node@HPEAX@1@PEAU21@0U_Copy_tag@01@@Z
	??$_Copy_unchecked@PEAV?$vector@PEBUwhisper_grammar_element@@V?$allocator@PEBUwhisper_grammar_element@@@std@@@std@@PEAV12@@std@@YAPEAV?$vector@PEBUwhisper_grammar_element@@V?$allocator@PEBUwhisper_grammar_element@@@std@@@0@PEAV10@00@Z
	??$_Copy_unchecked@PEAV?$vector@Uwhisper_grammar_element@@V?$allocator@Uwhisper_grammar_element@@@std@@@std@@PEAV12@@std@@YAPEAV?$vector@Uwhisper_grammar_element@@V?$allocator@Uwhisper_grammar_element@@@std@@@0@PEAV10@00@Z
	??$_Deallocate@$0BA@$0A@@std@@YAXPEAX_K@Z
	??$_Destroy_range@V?$allocator@U?$pair@V?$vector@IV?$allocator@I@std@@@std@@Uwhisper_partial_utf8@@@std@@@std@@@std@@YAXPEAU?$pair@V?$vector@IV?$allocator@I@std@@@std@@Uwhisper_partial_utf8@@@0@QEAU10@AEAV?$allocator@U?$pair@V?$vector@IV?$allocator@I@std@@@std@@Uwhisper_partial_utf8@@@std@@@0@@Z
	??$_Destroy_range@V?$allocator@V?$basic_string@DU?$char_traits@D@std@@V?$allocator@D@2@@std@@@std@@@std@@YAXPEAV?$basic_string@DU?$char_traits@D@std@@V?$allocator@D@2@@0@QEAV10@AEAV?$allocator@V?$basic_string@DU?$char_traits@D@std@@V?$allocator@D@2@@std@@@0@@Z
	??$_Destroy_range@V?$allocator@V?$vector@PEBUwhisper_grammar_element@@V?$allocator@PEBUwhisper_grammar_element@@@std@@@std@@@std@@@std@@YAXPEAV?$vector@PEBUwhisper_grammar_element@@V?$allocator@PEBUwhisper_grammar_element@@@std@@@0@QEAV10@AEAV?$allocator@V?$vector@PEBUwhisper_grammar_element@@V?$allocator@PEBUwhisper_grammar_element@@@std@@@std@@@0@@Z
	??$_Destroy_range@V?$allocator@V?$vector@Uwhisper_grammar_element@@V?$allocator@Uwhisper_grammar_element@@@std@@@std@@@std@@@std@@YAXPEAV?$vector@Uwhisper_grammar_element@@V?$allocator@Uwhisper_grammar_element@@@std@@@0@QEAV10@AEAV?$allocator@V?$vector@Uwhisper_grammar_element@@V?$allocator@Uwhisper_grammar_element@@@std@@@std@@@0@@Z
	??$_Emplace_reallocate@$$V@?$vector@V?$vector@PEBUwhisper_grammar_element@@V?$allocator@PEBUwhisper_grammar_element@@@std@@@std@@V?$allocator@V?$vector@PEBUwhisper_grammar_element@@V?$allocator@PEBUwhisper_grammar_element@@@std@@@std@@@2@@std@@QEAAPEAV?$vector@PEBUwhisper_grammar_element@@V?$allocator@PEBUwhisper_grammar_element@@@std@@@1@QEAV21@@Z
	??$_Emplace_reallocate@AEAMAEBH@?$vector@U?$whisper_pair@NH@@V?$allocator@U?$whisper_pair@NH@@@std@@@std@@QEAAPEAU?$whisper_pair@NH@@QEAU2@AEAMAEBH@Z
	??$_Emplace_reallocate@AEAPEAUggml_backend_buffer@@@?$vector@PEAUggml_backend_buffer@@V?$allocator@PEAUggml_backend_buffer@@@std@@@std@@QEAAPEAPEAUggml_backend_buffer@@QEAPEAU2@AEAPEAU2@@Z
	??$_Emplace_reallocate@AEAPEAUggml_backend_device@@AEAPEAUggml_backend_buffer_type@@@?$vector@U?$pair@PEAUggml_backend_device@@PEAUggml_backend_buffer_type@@@std@@V?$allocator@U?$pair@PEAUggml_backend_device@@PEAUggml_backend_buffer_type@@@std@@@2@@std@@QEAAPEAU?$pair@PEAUggml_backend_device@@PEAUggml_backend_buffer_type@@@1@QEAU21@AEAPEAUggml_backend_device@@AEAPEAUggml_backend_buffer_type@@@Z
	??$_Emplace_reallocate@AEAPEAUggml_backend_device@@PEAUggml_backend_buffer_type@@@?$vector@U?$pair@PEAUggml_backend_device@@PEAUggml_backend_buffer_type@@@std@@V?$allocator@U?$pair@PEAUggml_backend_device@@PEAUggml_backend_buffer_type@@@std@@@2@@std@@QEAAPEAU?$pair@PEAUggml_backend_device@@PEAUggml_backend_buffer_type@@@1@QEAU21@AEAPEAUggml_backend_device@@$$QEAPEAUggml_backend_buffer_type@@@Z
	??$_Emplace_reallocate@AEAPEAUggml_context@@@?$vector@PEAUggml_context@@V?$allocator@PEAUggml_context@@@std@@@std@@QEAAPEAPEAUggml_context@@QEAPEAU2@AEAPEAU2@@Z
	??$_Emplace_reallocate@AEBH@?$vector@HV?$allocator@H@std@@@std@@QEAAPEAHQEAHAEBH@Z
	??$_Emplace_reallocate@AEBI@?$vector@IV?$allocator@I@std@@@std@@QEAAPEAIQEAIAEBI@Z
	??$_Emplace_reallocate@AEBM@?$vector@MV?$allocator@M@std@@@std@@QEAAPEAMQEAMAEBM@Z
	??$_Emplace_reallocate@AEBQEAUggml_backend@@@?$vector@PEAUggml_backend@@V?$allocator@PEAUggml_backend@@@std@@@std@@QEAAPEAPEAUggml_backend@@QEAPEAU2@AEBQEAU2@@Z
	??$_Emplace_reallocate@AEBQEBUwhisper_grammar_element@@@?$vector@PEBUwhisper_grammar_element@@V?$allocator@PEBUwhisper_grammar_element@@@std@@@std@@QEAAPEAPEBUwhisper_grammar_element@@QEAPEBU2@AEBQEBU2@@Z
	??$_Emplace_reallocate@AEBUvad_segment_info@whisper_state@@@?$vector@Uvad_segment_info@whisper_state@@V?$allocator@Uvad_segment_info@whisper_state@@@std@@@std@@QEAAPEAUvad_segment_info@whisper_state@@QEAU23@AEBU23@@Z
	??$_Emplace_reallocate@AEBUwhisper_grammar_candidate@@@?$vector@Uwhisper_grammar_candidate@@V?$allocator@Uwhisper_grammar_candidate@@@std@@@std@@QEAAPEAUwhisper_grammar_candidate@@QEAU2@AEBU2@@Z
	??$_Emplace_reallocate@AEBUwhisper_grammar_element@@@?$vector@Uwhisper_grammar_element@@V?$allocator@Uwhisper_grammar_element@@@std@@@std@@QEAAPEAUwhisper_grammar_element@@QEAU2@AEBU2@@Z
	??$_Emplace_reallocate@AEBUwhisper_token_data@@@?$vector@Uwhisper_token_data@@V?$allocator@Uwhisper_token_data@@@std@@@std@@QEAAPEAUwhisper_token_data@@QEAU2@AEBU2@@Z
	??$_Emplace_reallocate@AEBV?$vector@PEBUwhisper_grammar_element@@V?$allocator@PEBUwhisper_grammar_element@@@std@@@std@@@?$vector@V?$vector@PEBUwhisper_grammar_element@@V?$allocator@PEBUwhisper_grammar_element@@@std@@@std@@V?$allocator@V?$vector@PEBUwhisper_grammar_element@@V?$allocator@PEBUwhisper_grammar_element@@@std@@@std@@@2@@std@@QEAAPEAV?$vector@PEBUwhisper_grammar_element@@V?$allocator@PEBUwhisper_grammar_element@@@std@@@1@QEAV21@AEBV21@@Z
	??$_Emplace_reallocate@H@?$vector@HV?$allocator@H@std@@@std@@QEAAPEAHQEAH$$QEAH@Z
	??$_Emplace_reallocate@I@?$vector@IV?$allocator@I@std@@@std@@QEAAPEAIQEAI$$QEAI@Z
	??$_Emplace_reallocate@M@?$vector@MV?$allocator@M@std@@@std@@QEAAPEAMQEAM$$QEAM@Z
	??$_Emplace_reallocate@N@?$vector@NV?$allocator@N@std@@@std@@QEAAPEANQEAN$$QEAN@Z
	??$_Emplace_reallocate@PEAUggml_tensor@@@?$vector@PEAUggml_tensor@@V?$allocator@PEAUggml_tensor@@@std@@@std@@QEAAPEAPEAUggml_tensor@@QEAPEAU2@$$QEAPEAU2@@Z
	??$_Emplace_reallocate@PEAUwhisper_state@@@?$vector@PEAUwhisper_state@@V?$allocator@PEAUwhisper_state@@@std@@@std@@QEAAPEAPEAUwhisper_state@@QEAPEAU2@$$QEAPEAU2@@Z
	??$_Emplace_reallocate@PEBUwhisper_grammar_element@@@?$vector@PEBUwhisper_grammar_element@@V?$allocator@PEBUwhisper_grammar_element@@@std@@@std@@QEAAPEAPEBUwhisper_grammar_element@@QEAPEBU2@$$QEAPEBU2@@Z
	??$_Emplace_reallocate@U?$pair@V?$vector@IV?$allocator@I@std@@@std@@Uwhisper_partial_utf8@@@std@@@?$vector@U?$pair@V?$vector@IV?$allocator@I@std@@@std@@Uwhisper_partial_utf8@@@std@@V?$allocator@U?$pair@V?$vector@IV?$allocator@I@std@@@std@@Uwhisper_partial_utf8@@@std@@@2@@std@@QEAAPEAU?$pair@V?$vector@IV?$allocator@I@std@@@std@@Uwhisper_partial_utf8@@@1@QEAU21@$$QEAU21@@Z
	??$_Emplace_reallocate@Uwhisper_grammar_candidate@@@?$vector@Uwhisper_grammar_candidate@@V?$allocator@Uwhisper_grammar_candidate@@@std@@@std@@QEAAPEAUwhisper_grammar_candidate@@QEAU2@$$QEAU2@@Z
	??$_Emplace_reallocate@Uwhisper_grammar_element@@@?$vector@Uwhisper_grammar_element@@V?$allocator@Uwhisper_grammar_element@@@std@@@std@@QEAAPEAUwhisper_grammar_element@@QEAU2@$$QEAU2@@Z
	??$_Emplace_reallocate@Uwhisper_segment@@@?$vector@Uwhisper_segment@@V?$allocator@Uwhisper_segment@@@std@@@std@@QEAAPEAUwhisper_segment@@QEAU2@$$QEAU2@@Z
	??$_Emplace_reallocate@Uwhisper_token_data@@@?$vector@Uwhisper_token_data@@V?$allocator@Uwhisper_token_data@@@std@@@std@@QEAAPEAUwhisper_token_data@@QEAU2@$$QEAU2@@Z
	??$_Emplace_reallocate@V?$basic_string@DU?$char_traits@D@std@@V?$allocator@D@2@@std@@@?$vector@V?$basic_string@DU?$char_traits@D@std@@V?$allocator@D@2@@std@@V?$allocator@V?$basic_string@DU?$char_traits@D@std@@V?$allocator@D@2@@std@@@2@@std@@QEAAPEAV?$basic_string@DU?$char_traits@D@std@@V?$allocator@D@2@@1@QEAV21@$$QEAV21@@Z
	??$_Erase_head@V?$allocator@U?$_Tree_node@HPEAX@std@@@std@@@?$_Tree_val@U?$_Tree_simple_types@H@std@@@std@@QEAAXAEAV?$allocator@U?$_Tree_node@HPEAX@std@@@1@@Z
	??$_Erase_head@V?$allocator@U?$_Tree_node@U?$pair@$$CBW4asr_tensor@@PEBD@std@@PEAX@std@@@std@@@?$_Tree_val@U?$_Tree_simple_types@U?$pair@$$CBW4asr_tensor@@PEBD@std@@@std@@@std@@QEAAXAEAV?$allocator@U?$_Tree_node@U?$pair@$$CBW4asr_tensor@@PEBD@std@@PEAX@std@@@1@@Z
	??$_Erase_tree@V?$allocator@U?$_Tree_node@HPEAX@std@@@std@@@?$_Tree_val@U?$_Tree_simple_types@H@std@@@std@@QEAAXAEAV?$allocator@U?$_Tree_node@HPEAX@std@@@1@PEAU?$_Tree_node@HPEAX@1@@Z
	??$_Erase_tree@V?$allocator@U?$_Tree_node@U?$pair@$$CBHH@std@@PEAX@std@@@std@@@?$_Tree_val@U?$_Tree_simple_types@U?$pair@$$CBHH@std@@@std@@@std@@QEAAXAEAV?$allocator@U?$_Tree_node@U?$pair@$$CBHH@std@@PEAX@std@@@1@PEAU?$_Tree_node@U?$pair@$$CBHH@std@@PEAX@1@@Z
	??$_Erase_tree@V?$allocator@U?$_Tree_node@U?$pair@$$CBHV?$basic_string@DU?$char_traits@D@std@@V?$allocator@D@2@@std@@@std@@PEAX@std@@@std@@@?$_Tree_val@U?$_Tree_simple_types@U?$pair@$$CBHV?$basic_string@DU?$char_traits@D@std@@V?$allocator@D@2@@std@@@std@@@std@@@std@@QEAAXAEAV?$allocator@U?$_Tree_node@U?$pair@$$CBHV?$basic_string@DU?$char_traits@D@std@@V?$allocator@D@2@@std@@@std@@PEAX@std@@@1@PEAU?$_Tree_node@U?$pair@$$CBHV?$basic_string@DU?$char_traits@D@std@@V?$allocator@D@2@@std@@@std@@PEAX@1@@Z
	??$_Erase_tree@V?$allocator@U?$_Tree_node@U?$pair@$$CBV?$basic_string@DU?$char_traits@D@std@@V?$allocator@D@2@@std@@H@std@@PEAX@std@@@std@@@?$_Tree_val@U?$_Tree_simple_types@U?$pair@$$CBV?$basic_string@DU?$char_traits@D@std@@V?$allocator@D@2@@std@@H@std@@@std@@@std@@QEAAXAEAV?$allocator@U?$_Tree_node@U?$pair@$$CBV?$basic_string@DU?$char_traits@D@std@@V?$allocator@D@2@@std@@H@std@@PEAX@std@@@1@PEAU?$_Tree_node@U?$pair@$$CBV?$basic_string@DU?$char_traits@D@std@@V?$allocator@D@2@@std@@H@std@@PEAX@1@@Z
	??$_Erase_tree@V?$allocator@U?$_Tree_node@U?$pair@$$CBV?$basic_string@DU?$char_traits@D@std@@V?$allocator@D@2@@std@@PEAUggml_tensor@@@std@@PEAX@std@@@std@@@?$_Tree_val@U?$_Tree_simple_types@U?$pair@$$CBV?$basic_string@DU?$char_traits@D@std@@V?$allocator@D@2@@std@@PEAUggml_tensor@@@std@@@std@@@std@@QEAAXAEAV?$allocator@U?$_Tree_node@U?$pair@$$CBV?$basic_string@DU?$char_traits@D@std@@V?$allocator@D@2@@std@@PEAUggml_tensor@@@std@@PEAX@std@@@1@PEAU?$_Tree_node@U?$pair@$$CBV?$basic_string@DU?$char_traits@D@std@@V?$allocator@D@2@@std@@PEAUggml_tensor@@@std@@PEAX@1@@Z
	??$_Erase_tree@V?$allocator@U?$_Tree_node@U?$pair@$$CBV?$basic_string@DU?$char_traits@D@std@@V?$allocator@D@2@@std@@U?$pair@HV?$basic_string@DU?$char_traits@D@std@@V?$allocator@D@2@@std@@@2@@std@@PEAX@std@@@std@@@?$_Tree_val@U?$_Tree_simple_types@U?$pair@$$CBV?$basic_string@DU?$char_traits@D@std@@V?$allocator@D@2@@std@@U?$pair@HV?$basic_string@DU?$char_traits@D@std@@V?$allocator@D@2@@std@@@2@@std@@@std@@@std@@QEAAXAEAV?$allocator@U?$_Tree_node@U?$pair@$$CBV?$basic_string@DU?$char_traits@D@std@@V?$allocator@D@2@@std@@U?$pair@HV?$basic_string@DU?$char_traits@D@std@@V?$allocator@D@2@@std@@@2@@std@@PEAX@std@@@1@PEAU?$_Tree_node@U?$pair@$$CBV?$basic_string@DU?$char_traits@D@std@@V?$allocator@D@2@@std@@U?$pair@HV?$basic_string@DU?$char_traits@D@std@@V?$allocator@D@2@@std@@@2@@std@@PEAX@1@@Z
	??$_Erase_tree@V?$allocator@U?$_Tree_node@U?$pair@$$CBW4asr_system@@V?$map@W4asr_tensor@@PEBDU?$less@W4asr_tensor@@@std@@V?$allocator@U?$pair@$$CBW4asr_tensor@@PEBD@std@@@3@@std@@@std@@PEAX@std@@@std@@@?$_Tree_val@U?$_Tree_simple_types@U?$pair@$$CBW4asr_system@@V?$map@W4asr_tensor@@PEBDU?$less@W4asr_tensor@@@std@@V?$allocator@U?$pair@$$CBW4asr_tensor@@PEBD@std@@@3@@std@@@std@@@std@@@std@@QEAAXAEAV?$allocator@U?$_Tree_node@U?$pair@$$CBW4asr_system@@V?$map@W4asr_tensor@@PEBDU?$less@W4asr_tensor@@@std@@V?$allocator@U?$pair@$$CBW4asr_tensor@@PEBD@std@@@3@@std@@@std@@PEAX@std@@@1@PEAU?$_Tree_node@U?$pair@$$CBW4asr_system@@V?$map@W4asr_tensor@@PEBDU?$less@W4asr_tensor@@@std@@V?$allocator@U?$pair@$$CBW4asr_tensor@@PEBD@std@@@3@@std@@@std@@PEAX@1@@Z
	??$_Erase_tree@V?$allocator@U?$_Tree_node@U?$pair@$$CBW4asr_tensor@@PEBD@std@@PEAX@std@@@std@@@?$_Tree_val@U?$_Tree_simple_types@U?$pair@$$CBW4asr_tensor@@PEBD@std@@@std@@@std@@QEAAXAEAV?$allocator@U?$_Tree_node@U?$pair@$$CBW4asr_tensor@@PEBD@std@@PEAX@std@@@1@PEAU?$_Tree_node@U?$pair@$$CBW4asr_tensor@@PEBD@std@@PEAX@1@@Z
	??$_Erase_tree@V?$allocator@U?$_Tree_node@U?$pair@$$CBW4asr_tensor@@W4ggml_op@@@std@@PEAX@std@@@std@@@?$_Tree_val@U?$_Tree_simple_types@U?$pair@$$CBW4asr_tensor@@W4ggml_op@@@std@@@std@@@std@@QEAAXAEAV?$allocator@U?$_Tree_node@U?$pair@$$CBW4asr_tensor@@W4ggml_op@@@std@@PEAX@std@@@1@PEAU?$_Tree_node@U?$pair@$$CBW4asr_tensor@@W4ggml_op@@@std@@PEAX@1@@Z
	??$_Erase_tree@V?$allocator@U?$_Tree_node@U?$pair@$$CBW4e_model@@V?$basic_string@DU?$char_traits@D@std@@V?$allocator@D@2@@std@@@std@@PEAX@std@@@std@@@?$_Tree_val@U?$_Tree_simple_types@U?$pair@$$CBW4e_model@@V?$basic_string@DU?$char_traits@D@std@@V?$allocator@D@2@@std@@@std@@@std@@@std@@QEAAXAEAV?$allocator@U?$_Tree_node@U?$pair@$$CBW4e_model@@V?$basic_string@DU?$char_traits@D@std@@V?$allocator@D@2@@std@@@std@@PEAX@std@@@1@PEAU?$_Tree_node@U?$pair@$$CBW4e_model@@V?$basic_string@DU?$char_traits@D@std@@V?$allocator@D@2@@std@@@std@@PEAX@1@@Z
	??$_Erase_tree@V?$allocator@U?$_Tree_node@U?$pair@$$CBW4vad_tensor@@PEBD@std@@PEAX@std@@@std@@@?$_Tree_val@U?$_Tree_simple_types@U?$pair@$$CBW4vad_tensor@@PEBD@std@@@std@@@std@@QEAAXAEAV?$allocator@U?$_Tree_node@U?$pair@$$CBW4vad_tensor@@PEBD@std@@PEAX@std@@@1@PEAU?$_Tree_node@U?$pair@$$CBW4vad_tensor@@PEBD@std@@PEAX@1@@Z
	??$_Erase_tree@V?$allocator@U?$_Tree_node@U?$pair@$$CBW4vad_tensor@@W4ggml_op@@@std@@PEAX@std@@@std@@@?$_Tree_val@U?$_Tree_simple_types@U?$pair@$$CBW4vad_tensor@@W4ggml_op@@@std@@@std@@@std@@QEAAXAEAV?$allocator@U?$_Tree_node@U?$pair@$$CBW4vad_tensor@@W4ggml_op@@@std@@PEAX@std@@@1@PEAU?$_Tree_node@U?$pair@$$CBW4vad_tensor@@W4ggml_op@@@std@@PEAX@1@@Z
	??$_Erase_tree@V?$allocator@U?$_Tree_node@U?$pair@$$CBW4whisper_alignment_heads_preset@@Uwhisper_aheads@@@std@@PEAX@std@@@std@@@?$_Tree_val@U?$_Tree_simple_types@U?$pair@$$CBW4whisper_alignment_heads_preset@@Uwhisper_aheads@@@std@@@std@@@std@@QEAAXAEAV?$allocator@U?$_Tree_node@U?$pair@$$CBW4whisper_alignment_heads_preset@@Uwhisper_aheads@@@std@@PEAX@std@@@1@PEAU?$_Tree_node@U?$pair@$$CBW4whisper_alignment_heads_preset@@Uwhisper_aheads@@@std@@PEAX@1@@Z
	??$_Erase_tree@V?$allocator@U?$_Tree_node@U?$pair@QEAUggml_backend_buffer_type@@PEAUggml_context@@@std@@PEAX@std@@@std@@@?$_Tree_val@U?$_Tree_simple_types@U?$pair@QEAUggml_backend_buffer_type@@PEAUggml_context@@@std@@@std@@@std@@QEAAXAEAV?$allocator@U?$_Tree_node@U?$pair@QEAUggml_backend_buffer_type@@PEAUggml_context@@@std@@PEAX@std@@@1@PEAU?$_Tree_node@U?$pair@QEAUggml_backend_buffer_type@@PEAUggml_context@@@std@@PEAX@1@@Z
	??$_Erase_tree_and_orphan@V?$allocator@U?$_Tree_node@HPEAX@std@@@std@@@?$_Tree_val@U?$_Tree_simple_types@H@std@@@std@@QEAAXAEAV?$allocator@U?$_Tree_node@HPEAX@std@@@1@PEAU?$_Tree_node@HPEAX@1@@Z
	??$_Erase_tree_and_orphan@V?$allocator@U?$_Tree_node@U?$pair@$$CBW4asr_tensor@@PEBD@std@@PEAX@std@@@std@@@?$_Tree_val@U?$_Tree_simple_types@U?$pair@$$CBW4asr_tensor@@PEBD@std@@@std@@@std@@QEAAXAEAV?$allocator@U?$_Tree_node@U?$pair@$$CBW4asr_tensor@@PEBD@std@@PEAX@std@@@1@PEAU?$_Tree_node@U?$pair@$$CBW4asr_tensor@@PEBD@std@@PEAX@1@@Z
	??$_Fill_memset@PEADD@std@@YAXPEADD_K@Z
	??$_Fill_zero_memset@PEAI@std@@YAXPEAI_K@Z
	??$_Fill_zero_memset@PEAM@std@@YAXPEAM_K@Z
	??$_Fill_zero_memset@PEAN@std@@YAXPEAN_K@Z
	??$_Find_hint@V?$basic_string@DU?$char_traits@D@std@@V?$allocator@D@2@@std@@@?$_Tree@V?$_Tmap_traits@V?$basic_string@DU?$char_traits@D@std@@V?$allocator@D@2@@std@@U?$pair@HV?$basic_string@DU?$char_traits@D@std@@V?$allocator@D@2@@std@@@2@U?$less@V?$basic_string@DU?$char_traits@D@std@@V?$allocator@D@2@@std@@@2@V?$allocator@U?$pair@$$CBV?$basic_string@DU?$char_traits@D@std@@V?$allocator@D@2@@std@@U?$pair@HV?$basic_string@DU?$char_traits@D@std@@V?$allocator@D@2@@std@@@2@@std@@@2@$0A@@std@@@std@@IEBA?AU?$_Tree_find_hint_result@PEAU?$_Tree_node@U?$pair@$$CBV?$basic_string@DU?$char_traits@D@std@@V?$allocator@D@2@@std@@U?$pair@HV?$basic_string@DU?$char_traits@D@std@@V?$allocator@D@2@@std@@@2@@std@@PEAX@std@@@1@QEAU?$_Tree_node@U?$pair@$$CBV?$basic_string@DU?$char_traits@D@std@@V?$allocator@D@2@@std@@U?$pair@HV?$basic_string@DU?$char_traits@D@std@@V?$allocator@D@2@@std@@@2@@std@@PEAX@1@AEBV?$basic_string@DU?$char_traits@D@std@@V?$allocator@D@2@@1@@Z
	??$_Find_hint@W4asr_system@@@?$_Tree@V?$_Tmap_traits@W4asr_system@@V?$map@W4asr_tensor@@PEBDU?$less@W4asr_tensor@@@std@@V?$allocator@U?$pair@$$CBW4asr_tensor@@PEBD@std@@@3@@std@@U?$less@W4asr_system@@@3@V?$allocator@U?$pair@$$CBW4asr_system@@V?$map@W4asr_tensor@@PEBDU?$less@W4asr_tensor@@@std@@V?$allocator@U?$pair@$$CBW4asr_tensor@@PEBD@std@@@3@@std@@@std@@@3@$0A@@std@@@std@@IEBA?AU?$_Tree_find_hint_result@PEAU?$_Tree_node@U?$pair@$$CBW4asr_system@@V?$map@W4asr_tensor@@PEBDU?$less@W4asr_tensor@@@std@@V?$allocator@U?$pair@$$CBW4asr_tensor@@PEBD@std@@@3@@std@@@std@@PEAX@std@@@1@QEAU?$_Tree_node@U?$pair@$$CBW4asr_system@@V?$map@W4asr_tensor@@PEBDU?$less@W4asr_tensor@@@std@@V?$allocator@U?$pair@$$CBW4asr_tensor@@PEBD@std@@@3@@std@@@std@@PEAX@1@AEBW4asr_system@@@Z
	??$_Find_hint@W4asr_tensor@@@?$_Tree@V?$_Tmap_traits@W4asr_tensor@@PEBDU?$less@W4asr_tensor@@@std@@V?$allocator@U?$pair@$$CBW4asr_tensor@@PEBD@std@@@3@$0A@@std@@@std@@IEBA?AU?$_Tree_find_hint_result@PEAU?$_Tree_node@U?$pair@$$CBW4asr_tensor@@PEBD@std@@PEAX@std@@@1@QEAU?$_Tree_node@U?$pair@$$CBW4asr_tensor@@PEBD@std@@PEAX@1@AEBW4asr_tensor@@@Z
	??$_Find_hint@W4asr_tensor@@@?$_Tree@V?$_Tmap_traits@W4asr_tensor@@W4ggml_op@@U?$less@W4asr_tensor@@@std@@V?$allocator@U?$pair@$$CBW4asr_tensor@@W4ggml_op@@@std@@@4@$0A@@std@@@std@@IEBA?AU?$_Tree_find_hint_result@PEAU?$_Tree_node@U?$pair@$$CBW4asr_tensor@@W4ggml_op@@@std@@PEAX@std@@@1@QEAU?$_Tree_node@U?$pair@$$CBW4asr_tensor@@W4ggml_op@@@std@@PEAX@1@AEBW4asr_tensor@@@Z
	??$_Find_hint@W4e_model@@@?$_Tree@V?$_Tmap_traits@W4e_model@@V?$basic_string@DU?$char_traits@D@std@@V?$allocator@D@2@@std@@U?$less@W4e_model@@@3@V?$allocator@U?$pair@$$CBW4e_model@@V?$basic_string@DU?$char_traits@D@std@@V?$allocator@D@2@@std@@@std@@@3@$0A@@std@@@std@@IEBA?AU?$_Tree_find_hint_result@PEAU?$_Tree_node@U?$pair@$$CBW4e_model@@V?$basic_string@DU?$char_traits@D@std@@V?$allocator@D@2@@std@@@std@@PEAX@std@@@1@QEAU?$_Tree_node@U?$pair@$$CBW4e_model@@V?$basic_string@DU?$char_traits@D@std@@V?$allocator@D@2@@std@@@std@@PEAX@1@AEBW4e_model@@@Z
	??$_Find_hint@W4vad_tensor@@@?$_Tree@V?$_Tmap_traits@W4vad_tensor@@PEBDU?$less@W4vad_tensor@@@std@@V?$allocator@U?$pair@$$CBW4vad_tensor@@PEBD@std@@@3@$0A@@std@@@std@@IEBA?AU?$_Tree_find_hint_result@PEAU?$_Tree_node@U?$pair@$$CBW4vad_tensor@@PEBD@std@@PEAX@std@@@1@QEAU?$_Tree_node@U?$pair@$$CBW4vad_tensor@@PEBD@std@@PEAX@1@AEBW4vad_tensor@@@Z
	??$_Find_hint@W4vad_tensor@@@?$_Tree@V?$_Tmap_traits@W4vad_tensor@@W4ggml_op@@U?$less@W4vad_tensor@@@std@@V?$allocator@U?$pair@$$CBW4vad_tensor@@W4ggml_op@@@std@@@4@$0A@@std@@@std@@IEBA?AU?$_Tree_find_hint_result@PEAU?$_Tree_node@U?$pair@$$CBW4vad_tensor@@W4ggml_op@@@std@@PEAX@std@@@1@QEAU?$_Tree_node@U?$pair@$$CBW4vad_tensor@@W4ggml_op@@@std@@PEAX@1@AEBW4vad_tensor@@@Z
	??$_Find_hint@W4whisper_alignment_heads_preset@@@?$_Tree@V?$_Tmap_traits@W4whisper_alignment_heads_preset@@Uwhisper_aheads@@U?$less@W4whisper_alignment_heads_preset@@@std@@V?$allocator@U?$pair@$$CBW4whisper_alignment_heads_preset@@Uwhisper_aheads@@@std@@@4@$0A@@std@@@std@@IEBA?AU?$_Tree_find_hint_result@PEAU?$_Tree_node@U?$pair@$$CBW4whisper_alignment_heads_preset@@Uwhisper_aheads@@@std@@PEAX@std@@@1@QEAU?$_Tree_node@U?$pair@$$CBW4whisper_alignment_heads_preset@@Uwhisper_aheads@@@std@@PEAX@1@AEBW4whisper_alignment_heads_preset@@@Z
	??$_Find_lower_bound@V?$basic_string@DU?$char_traits@D@std@@V?$allocator@D@2@@std@@@?$_Tree@V?$_Tmap_traits@V?$basic_string@DU?$char_traits@D@std@@V?$allocator@D@2@@std@@HU?$less@V?$basic_string@DU?$char_traits@D@std@@V?$allocator@D@2@@std@@@2@V?$allocator@U?$pair@$$CBV?$basic_string@DU?$char_traits@D@std@@V?$allocator@D@2@@std@@H@std@@@2@$0A@@std@@@std@@IEBA?AU?$_Tree_find_result@PEAU?$_Tree_node@U?$pair@$$CBV?$basic_string@DU?$char_traits@D@std@@V?$allocator@D@2@@std@@H@std@@PEAX@std@@@1@AEBV?$basic_string@DU?$char_traits@D@std@@V?$allocator@D@2@@1@@Z
	??$_Getvals@_W@?$time_get@DV?$istreambuf_iterator@DU?$char_traits@D@std@@@std@@@std@@IEAAX_WAEBV_Locinfo@1@@Z
	??$_Getvals@_W@?$time_get@_WV?$istreambuf_iterator@_WU?$char_traits@_W@std@@@std@@@std@@IEAAX_WAEBV_Locinfo@1@@Z
	??$_Guess_median_unchecked@PEAMU?$less@X@std@@@std@@YAXPEAM00U?$less@X@0@@Z
	??$_Hash_array_representation@D@std@@YA_KQEBD_K@Z
	??$_Insert_range@PEAH@?$vector@HV?$allocator@H@std@@@std@@AEAAXV?$_Vector_const_iterator@V?$_Vector_val@U?$_Simple_types@H@std@@@std@@@1@PEAH1Uforward_iterator_tag@1@@Z
	??$_Insert_range@PEAUwhisper_token_data@@@?$vector@Uwhisper_token_data@@V?$allocator@Uwhisper_token_data@@@std@@@std@@AEAAXV?$_Vector_const_iterator@V?$_Vector_val@U?$_Simple_types@Uwhisper_token_data@@@std@@@std@@@1@PEAUwhisper_token_data@@1Uforward_iterator_tag@1@@Z
	??$_Integral_to_string@DH@std@@YA?AV?$basic_string@DU?$char_traits@D@std@@V?$allocator@D@2@@0@H@Z
	??$_Invoke@V?$tuple@P6AHPEAUwhisper_context@@PEAUwhisper_state@@Uwhisper_full_params@@PEBMH@ZPEAU1@PEAU2@U3@PEBMH@std@@$0A@$00$01$02$03$04@thread@std@@CAIPEAX@Z
	??$_Invoke@V?$tuple@P6AXHPEBMAEBV?$vector@MV?$allocator@M@std@@@std@@HHHHAEBUwhisper_filters@@AEAUwhisper_mel@@@ZHPEBMV?$reference_wrapper@$$CBV?$vector@MV?$allocator@M@std@@@std@@@2@_JHHHV?$reference_wrapper@$$CBUwhisper_filters@@@2@V?$reference_wrapper@Uwhisper_mel@@@2@@std@@$0A@$00$01$02$03$04$05$06$07$08@thread@std@@CAIPEAX@Z
	??$_Is_all_bits_zero@H@std@@YA_NAEBH@Z
	??$_Is_all_bits_zero@I@std@@YA_NAEBI@Z
	??$_Is_all_bits_zero@M@std@@YA_NAEBM@Z
	??$_Is_all_bits_zero@N@std@@YA_NAEBN@Z
	??$_Lookup_coll@PEBDD@std@@YAPEBDPEBD0PEBU?$_Sequence@D@0@@Z
	??$_Lookup_coll@V?$_String_const_iterator@V?$_String_val@U?$_Simple_types@D@std@@@std@@@std@@D@std@@YA?AV?$_String_const_iterator@V?$_String_val@U?$_Simple_types@D@std@@@std@@@0@V10@0PEBU?$_Sequence@D@0@@Z
	??$_Lookup_equiv@DV?$regex_traits@D@std@@@std@@YA_NEPEBU?$_Sequence@D@0@AEBV?$regex_traits@D@0@@Z
	??$_Lookup_range@D@std@@YA_NIPEBU?$_Buf@D@0@@Z
	??$_Maklocstr@D@std@@YAPEADPEBDPEADAEBU_Cvtvec@@@Z
	??$_Match@V?$allocator@V?$sub_match@PEBD@std@@@std@@@?$_Matcher@PEBDDV?$regex_traits@D@std@@PEBD@std@@QEAA_NPEAV?$match_results@PEBDV?$allocator@V?$sub_match@PEBD@std@@@std@@@1@_N@Z
	??$_Match@V?$allocator@V?$sub_match@V?$_String_const_iterator@V?$_String_val@U?$_Simple_types@D@std@@@std@@@std@@@std@@@std@@@?$_Matcher@V?$_String_const_iterator@V?$_String_val@U?$_Simple_types@D@std@@@std@@@std@@DV?$regex_traits@D@2@V12@@std@@QEAA_NPEAV?$match_results@V?$_String_const_iterator@V?$_String_val@U?$_Simple_types@D@std@@@std@@@std@@V?$allocator@V?$sub_match@V?$_String_const_iterator@V?$_String_val@U?$_Simple_types@D@std@@@std@@@std@@@std@@@2@@1@_N@Z
	??$_Move_unchecked@PEAHPEAH@std@@YAPEAHPEAH00@Z
	??$_Move_unchecked@PEAUwhisper_token_data@@PEAU1@@std@@YAPEAUwhisper_token_data@@PEAU1@00@Z
	??$_Partition_by_median_guess_unchecked@PEAMU?$less@X@std@@@std@@YA?AU?$pair@PEAMPEAM@0@PEAM0U?$less@X@0@@Z
	??$_Reallocate_grow_by@V<lambda_319d5e083f45f90dcdce5dce53cbb275>@@D@?$basic_string@DU?$char_traits@D@std@@V?$allocator@D@2@@std@@AEAAAEAV01@_KV<lambda_319d5e083f45f90dcdce5dce53cbb275>@@D@Z
	??$_Reallocate_grow_by@V<lambda_65e615be2a453ca0576c979606f46740>@@PEBD_K@?$basic_string@DU?$char_traits@D@std@@V?$allocator@D@2@@std@@AEAAAEAV01@_KV<lambda_65e615be2a453ca0576c979606f46740>@@PEBD_K@Z
	??$_Reallocate_grow_by@V<lambda_e1befb086ad3257e3f042a63030725f7>@@_KD@?$basic_string@DU?$char_traits@D@std@@V?$allocator@D@2@@std@@AEAAAEAV01@_KV<lambda_e1befb086ad3257e3f042a63030725f7>@@_KD@Z
	??$_Reallocate_grow_by@V<lambda_f3a66ab6a0570788f31503db83886f49>@@_KPEBD_K@?$basic_string@DU?$char_traits@D@std@@V?$allocator@D@2@@std@@AEAAAEAV01@_KV<lambda_f3a66ab6a0570788f31503db83886f49>@@_KPEBD2@Z
	??$_Regex_match1@PEBDV?$allocator@V?$sub_match@PEBD@std@@@std@@DV?$regex_traits@D@2@PEBD@std@@YA_NPEBD0PEAV?$match_results@PEBDV?$allocator@V?$sub_match@PEBD@std@@@std@@@0@AEBV?$basic_regex@DV?$regex_traits@D@std@@@0@W4match_flag_type@regex_constants@0@_N@Z
	??$_Regex_search2@V?$_String_const_iterator@V?$_String_val@U?$_Simple_types@D@std@@@std@@@std@@V?$allocator@V?$sub_match@V?$_String_const_iterator@V?$_String_val@U?$_Simple_types@D@std@@@std@@@std@@@std@@@2@DV?$regex_traits@D@2@V12@@std@@YA_NV?$_String_const_iterator@V?$_String_val@U?$_Simple_types@D@std@@@std@@@0@0PEAV?$match_results@V?$_String_const_iterator@V?$_String_val@U?$_Simple_types@D@std@@@std@@@std@@V?$allocator@V?$sub_match@V?$_String_const_iterator@V?$_String_val@U?$_Simple_types@D@std@@@std@@@std@@@std@@@2@@0@AEBV?$basic_regex@DV?$regex_traits@D@std@@@0@W4match_flag_type@regex_constants@0@0@Z
	??$_Reset@PEBD@?$basic_regex@DV?$regex_traits@D@std@@@std@@AEAAXPEBD0W4syntax_option_type@regex_constants@1@Uforward_iterator_tag@1@@Z
	??$_Resize_reallocate@I@?$vector@IV?$allocator@I@std@@@std@@AEAAX_KAEBI@Z
	??$_Resize_reallocate@U_Value_init_tag@std@@@?$vector@DV?$allocator@D@std@@@std@@AEAAX_KAEBU_Value_init_tag@1@@Z
	??$_Resize_reallocate@U_Value_init_tag@std@@@?$vector@EV?$allocator@E@std@@@std@@AEAAX_KAEBU_Value_init_tag@1@@Z
	??$_Resize_reallocate@U_Value_init_tag@std@@@?$vector@HV?$allocator@H@std@@@std@@AEAAX_KAEBU_Value_init_tag@1@@Z
	??$_Resize_reallocate@U_Value_init_tag@std@@@?$vector@MV?$allocator@M@std@@@std@@AEAAX_KAEBU_Value_init_tag@1@@Z
	??$_Resize_reallocate@U_Value_init_tag@std@@@?$vector@U?$whisper_pair@NH@@V?$allocator@U?$whisper_pair@NH@@@std@@@std@@AEAAX_KAEBU_Value_init_tag@1@@Z
	??$_Resize_reallocate@U_Value_init_tag@std@@@?$vector@U_Grp_t@?$_Tgt_state_t@PEBD@std@@V?$allocator@U_Grp_t@?$_Tgt_state_t@PEBD@std@@@3@@std@@AEAAX_KAEBU_Value_init_tag@1@@Z
	??$_Resize_reallocate@U_Value_init_tag@std@@@?$vector@U_Grp_t@?$_Tgt_state_t@V?$_String_const_iterator@V?$_String_val@U?$_Simple_types@D@std@@@std@@@std@@@std@@V?$allocator@U_Grp_t@?$_Tgt_state_t@V?$_String_const_iterator@V?$_String_val@U?$_Simple_types@D@std@@@std@@@std@@@std@@@3@@std@@AEAAX_KAEBU_Value_init_tag@1@@Z
	??$_Resize_reallocate@U_Value_init_tag@std@@@?$vector@U_Loop_vals_t@std@@V?$allocator@U_Loop_vals_t@std@@@2@@std@@AEAAX_KAEBU_Value_init_tag@1@@Z
	??$_Resize_reallocate@U_Value_init_tag@std@@@?$vector@Uwhisper_kv_cell@@V?$allocator@Uwhisper_kv_cell@@@std@@@std@@AEAAX_KAEBU_Value_init_tag@1@@Z
	??$_Resize_reallocate@U_Value_init_tag@std@@@?$vector@Uwhisper_layer_decoder@@V?$allocator@Uwhisper_layer_decoder@@@std@@@std@@AEAAX_KAEBU_Value_init_tag@1@@Z
	??$_Resize_reallocate@U_Value_init_tag@std@@@?$vector@Uwhisper_layer_encoder@@V?$allocator@Uwhisper_layer_encoder@@@std@@@std@@AEAAX_KAEBU_Value_init_tag@1@@Z
	??$_Resize_reallocate@U_Value_init_tag@std@@@?$vector@Uwhisper_token_data@@V?$allocator@Uwhisper_token_data@@@std@@@std@@AEAAX_KAEBU_Value_init_tag@1@@Z
	??$_Resize_reallocate@U_Value_init_tag@std@@@?$vector@Uwhisper_vad_segment@@V?$allocator@Uwhisper_vad_segment@@@std@@@std@@AEAAX_KAEBU_Value_init_tag@1@@Z
	??$_Resize_reallocate@U_Value_init_tag@std@@@?$vector@V?$sub_match@PEBD@std@@V?$allocator@V?$sub_match@PEBD@std@@@2@@std@@AEAAX_KAEBU_Value_init_tag@1@@Z
	??$_Resize_reallocate@U_Value_init_tag@std@@@?$vector@V?$sub_match@V?$_String_const_iterator@V?$_String_val@U?$_Simple_types@D@std@@@std@@@std@@@std@@V?$allocator@V?$sub_match@V?$_String_const_iterator@V?$_String_val@U?$_Simple_types@D@std@@@std@@@std@@@std@@@2@@std@@AEAAX_KAEBU_Value_init_tag@1@@Z
	??$_Sort_unchecked@PEAMU?$less@X@std@@@std@@YAXPEAM0_JU?$less@X@0@@Z
	??$_Traits_compare@U?$char_traits@D@std@@@std@@YAHQEBD_K01@Z
	??$_UIntegral_to_buff@DI@std@@YAPEADPEADI@Z
	??$_Ucopy@PEAV?$vector@PEBUwhisper_grammar_element@@V?$allocator@PEBUwhisper_grammar_element@@@std@@@std@@@?$vector@V?$vector@PEBUwhisper_grammar_element@@V?$allocator@PEBUwhisper_grammar_element@@@std@@@std@@V?$allocator@V?$vector@PEBUwhisper_grammar_element@@V?$allocator@PEBUwhisper_grammar_element@@@std@@@std@@@2@@std@@AEAAPEAV?$vector@PEBUwhisper_grammar_element@@V?$allocator@PEBUwhisper_grammar_element@@@std@@@1@PEAV21@00@Z
	??$_Ucopy@PEAV?$vector@Uwhisper_grammar_element@@V?$allocator@Uwhisper_grammar_element@@@std@@@std@@@?$vector@V?$vector@Uwhisper_grammar_element@@V?$allocator@Uwhisper_grammar_element@@@std@@@std@@V?$allocator@V?$vector@Uwhisper_grammar_element@@V?$allocator@Uwhisper_grammar_element@@@std@@@std@@@2@@std@@AEAAPEAV?$vector@Uwhisper_grammar_element@@V?$allocator@Uwhisper_grammar_element@@@std@@@1@PEAV21@00@Z
	??$_Uninitialized_move@PEAU?$pair@V?$vector@IV?$allocator@I@std@@@std@@Uwhisper_partial_utf8@@@std@@V?$allocator@U?$pair@V?$vector@IV?$allocator@I@std@@@std@@Uwhisper_partial_utf8@@@std@@@2@@std@@YAPEAU?$pair@V?$vector@IV?$allocator@I@std@@@std@@Uwhisper_partial_utf8@@@0@QEAU10@0PEAU10@AEAV?$allocator@U?$pair@V?$vector@IV?$allocator@I@std@@@std@@Uwhisper_partial_utf8@@@std@@@0@@Z
	??$_Uninitialized_move@PEAUwhisper_segment@@V?$allocator@Uwhisper_segment@@@std@@@std@@YAPEAUwhisper_segment@@QEAU1@0PEAU1@AEAV?$allocator@Uwhisper_segment@@@0@@Z
	??$_Uninitialized_move@PEAV?$basic_string@DU?$char_traits@D@std@@V?$allocator@D@2@@std@@V?$allocator@V?$basic_string@DU?$char_traits@D@std@@V?$allocator@D@2@@std@@@2@@std@@YAPEAV?$basic_string@DU?$char_traits@D@std@@V?$allocator@D@2@@0@QEAV10@0PEAV10@AEAV?$allocator@V?$basic_string@DU?$char_traits@D@std@@V?$allocator@D@2@@std@@@0@@Z
	??$_Uninitialized_move@PEAV?$vector@PEBUwhisper_grammar_element@@V?$allocator@PEBUwhisper_grammar_element@@@std@@@std@@V?$allocator@V?$vector@PEBUwhisper_grammar_element@@V?$allocator@PEBUwhisper_grammar_element@@@std@@@std@@@2@@std@@YAPEAV?$vector@PEBUwhisper_grammar_element@@V?$allocator@PEBUwhisper_grammar_element@@@std@@@0@QEAV10@0PEAV10@AEAV?$allocator@V?$vector@PEBUwhisper_grammar_element@@V?$allocator@PEBUwhisper_grammar_element@@@std@@@std@@@0@@Z
	??$_Zero_range@PEAD@std@@YAPEADQEAD0@Z
	??$_Zero_range@PEAE@std@@YAPEAEQEAE0@Z
	??$_Zero_range@PEAH@std@@YAPEAHQEAH0@Z
	??$_Zero_range@PEAM@std@@YAPEAMQEAM0@Z
	??$emplace_back@AEAPEAUggml_backend_buffer@@@?$vector@PEAUggml_backend_buffer@@V?$allocator@PEAUggml_backend_buffer@@@std@@@std@@QEAA?A_TAEAPEAUggml_backend_buffer@@@Z
	??$fill@PEANN@std@@YAXQEAN0AEBN@Z
	??$fill@V?$_Vector_iterator@V?$_Vector_val@U?$_Simple_types@M@std@@@std@@@std@@H@std@@YAXV?$_Vector_iterator@V?$_Vector_val@U?$_Simple_types@M@std@@@std@@@0@0AEBH@Z
	??$generate_canonical@N$0?0V?$mersenne_twister_engine@I$0CA@$0CHA@$0BIN@$0BP@$0JJAILANP@$0L@$0PPPPPPPP@$06$0JNCMFGIA@$0P@$0OPMGAAAA@$0BC@$0GMAHIJGF@@std@@@std@@YANAEAV?$mersenne_twister_engine@I$0CA@$0CHA@$0BIN@$0BP@$0JJAILANP@$0L@$0PPPPPPPP@$06$0JNCMFGIA@$0P@$0OPMGAAAA@$0BC@$0GMAHIJGF@@0@@Z
	??$insert@$0A@$0A@@?$_Tree@V?$_Tset_traits@HU?$less@H@std@@V?$allocator@H@2@$0A@@std@@@std@@QEAA?AU?$pair@V?$_Tree_const_iterator@V?$_Tree_val@U?$_Tree_simple_types@H@std@@@std@@@std@@_N@1@AEBH@Z
	??$lookup_classname@PEBD@?$_Regex_traits@D@std@@QEBAFPEBD0_N@Z
	??$make_unique@V?$tuple@P6AHPEAUwhisper_context@@PEAUwhisper_state@@Uwhisper_full_params@@PEBMH@ZPEAU1@PEAU2@U3@PEBMH@std@@A6AHPEAUwhisper_context@@PEAUwhisper_state@@Uwhisper_full_params@@PEBMH@ZAEAPEAU3@AEAPEAU4@U5@PEBMAEBH$0A@@std@@YA?AV?$unique_ptr@V?$tuple@P6AHPEAUwhisper_context@@PEAUwhisper_state@@Uwhisper_full_params@@PEBMH@ZPEAU1@PEAU2@U3@PEBMH@std@@U?$default_delete@V?$tuple@P6AHPEAUwhisper_context@@PEAUwhisper_state@@Uwhisper_full_params@@PEBMH@ZPEAU1@PEAU2@U3@PEBMH@std@@@2@@0@A6AHPEAUwhisper_context@@PEAUwhisper_state@@Uwhisper_full_params@@PEBMH@ZAEAPEAU2@AEAPEAU3@$$QEAU4@$$QEAPEBMAEBH@Z
	??$make_unique@V?$tuple@P6AXHPEBMAEBV?$vector@MV?$allocator@M@std@@@std@@HHHHAEBUwhisper_filters@@AEAUwhisper_mel@@@ZHPEBMV?$reference_wrapper@$$CBV?$vector@MV?$allocator@M@std@@@std@@@2@_JHHHV?$reference_wrapper@$$CBUwhisper_filters@@@2@V?$reference_wrapper@Uwhisper_mel@@@2@@std@@A6AXHPEBMAEBV?$vector@MV?$allocator@M@std@@@2@HHHHAEBUwhisper_filters@@AEAUwhisper_mel@@@ZHAEAPEBMV?$reference_wrapper@$$CBV?$vector@MV?$allocator@M@std@@@std@@@2@_JAEBHAEBHAEBHV?$reference_wrapper@$$CBUwhisper_filters@@@2@V?$reference_wrapper@Uwhisper_mel@@@2@$0A@@std@@YA?AV?$unique_ptr@V?$tuple@P6AXHPEBMAEBV?$vector@MV?$allocator@M@std@@@std@@HHHHAEBUwhisper_filters@@AEAUwhisper_mel@@@ZHPEBMV?$reference_wrapper@$$CBV?$vector@MV?$allocator@M@std@@@std@@@2@_JHHHV?$reference_wrapper@$$CBUwhisper_filters@@@2@V?$reference_wrapper@Uwhisper_mel@@@2@@std@@U?$default_delete@V?$tuple@P6AXHPEBMAEBV?$vector@MV?$allocator@M@std@@@std@@HHHHAEBUwhisper_filters@@AEAUwhisper_mel@@@ZHPEBMV?$reference_wrapper@$$CBV?$vector@MV?$allocator@M@std@@@std@@@2@_JHHHV?$reference_wrapper@$$CBUwhisper_filters@@@2@V?$reference_wrapper@Uwhisper_mel@@@2@@std@@@2@@0@A6AXHPEBMAEBV?$vector@MV?$allocator@M@std@@@0@HHHHAEBUwhisper_filters@@AEAUwhisper_mel@@@Z$$QEAHAEAPEBM$$QEAV?$reference_wrapper@$$CBV?$vector@MV?$allocator@M@std@@@std@@@0@$$QEA_JAEBH99$$QEAV?$reference_wrapper@$$CBUwhisper_filters@@@0@$$QEAV?$reference_wrapper@Uwhisper_mel@@@0@@Z
	??$make_unique@V_Node_assert@std@@W4_Node_type@2@$0A@@std@@YA?AV?$unique_ptr@V_Node_assert@std@@U?$default_delete@V_Node_assert@std@@@2@@0@$$QEAW4_Node_type@0@@Z
	??$pow@MN$0A@@@YANMN@Z
	??$pow@NM$0A@@@YANNM@Z
	??$regex_match@U?$char_traits@D@std@@V?$allocator@D@2@DV?$regex_traits@D@2@@std@@YA_NAEBV?$basic_string@DU?$char_traits@D@std@@V?$allocator@D@2@@0@AEBV?$basic_regex@DV?$regex_traits@D@std@@@0@W4match_flag_type@regex_constants@0@@Z
	??$regex_search@U?$char_traits@D@std@@V?$allocator@D@2@V?$allocator@V?$sub_match@V?$_String_const_iterator@V?$_String_val@U?$_Simple_types@D@std@@@std@@@std@@@std@@@2@DV?$regex_traits@D@2@@std@@YA_NAEBV?$basic_string@DU?$char_traits@D@std@@V?$allocator@D@2@@0@AEAV?$match_results@V?$_String_const_iterator@V?$_String_val@U?$_Simple_types@D@std@@@std@@@std@@V?$allocator@V?$sub_match@V?$_String_const_iterator@V?$_String_val@U?$_Simple_types@D@std@@@std@@@std@@@std@@@2@@0@AEBV?$basic_regex@DV?$regex_traits@D@std@@@0@W4match_flag_type@regex_constants@0@@Z
	??$transform_primary@PEBD@?$_Regex_traits@D@std@@QEBA?AV?$basic_string@DU?$char_traits@D@std@@V?$allocator@D@2@@1@PEBD0@Z
	??$transform_primary@V?$_String_iterator@V?$_String_val@U?$_Simple_types@D@std@@@std@@@std@@@?$_Regex_traits@D@std@@QEBA?AV?$basic_string@DU?$char_traits@D@std@@V?$allocator@D@2@@1@V?$_String_iterator@V?$_String_val@U?$_Simple_types@D@std@@@std@@@1@0@Z
	??$use_facet@V?$codecvt@DDU_Mbstatet@@@std@@@std@@YAAEBV?$codecvt@DDU_Mbstatet@@@0@AEBVlocale@0@@Z
	??$use_facet@V?$collate@D@std@@@std@@YAAEBV?$collate@D@0@AEBVlocale@0@@Z
	??$use_facet@V?$ctype@D@std@@@std@@YAAEBV?$ctype@D@0@AEBVlocale@0@@Z
	??0?$_Builder@PEBDDV?$regex_traits@D@std@@@std@@QEAA@AEBV?$regex_traits@D@1@W4syntax_option_type@regex_constants@1@@Z
	??0?$_Parser@PEBDDV?$regex_traits@D@std@@@std@@QEAA@AEBV?$regex_traits@D@1@PEBD1W4syntax_option_type@regex_constants@1@@Z
	??0?$_Tgt_state_t@PEBD@std@@QEAA@AEBV01@@Z
	??0?$_Tgt_state_t@V?$_String_const_iterator@V?$_String_val@U?$_Simple_types@D@std@@@std@@@std@@@std@@QEAA@AEBV01@@Z
	??0?$basic_ifstream@DU?$char_traits@D@std@@@std@@QEAA@PEB_WHH@Z
	??0?$basic_ofstream@DU?$char_traits@D@std@@@std@@QEAA@PEBDHH@Z
	??0?$basic_string@DU?$char_traits@D@std@@V?$allocator@D@2@@std@@QEAA@AEBV01@@Z
	??0?$basic_string@DU?$char_traits@D@std@@V?$allocator@D@2@@std@@QEAA@QEBD@Z
	??0?$basic_string@DU?$char_traits@D@std@@V?$allocator@D@2@@std@@QEAA@U_String_constructor_concat_tag@1@AEAV01@1@Z
	??0?$basic_string@_WU?$char_traits@_W@std@@V?$allocator@_W@2@@std@@QEAA@AEBV01@@Z
	??0?$map@V?$basic_string@DU?$char_traits@D@std@@V?$allocator@D@2@@std@@U?$pair@HV?$basic_string@DU?$char_traits@D@std@@V?$allocator@D@2@@std@@@2@U?$less@V?$basic_string@DU?$char_traits@D@std@@V?$allocator@D@2@@std@@@2@V?$allocator@U?$pair@$$CBV?$basic_string@DU?$char_traits@D@std@@V?$allocator@D@2@@std@@U?$pair@HV?$basic_string@DU?$char_traits@D@std@@V?$allocator@D@2@@std@@@2@@std@@@2@@std@@QEAA@V?$initializer_list@U?$pair@$$CBV?$basic_string@DU?$char_traits@D@std@@V?$allocator@D@2@@std@@U?$pair@HV?$basic_string@DU?$char_traits@D@std@@V?$allocator@D@2@@std@@@2@@std@@@1@@Z
	??0?$map@W4asr_tensor@@PEBDU?$less@W4asr_tensor@@@std@@V?$allocator@U?$pair@$$CBW4asr_tensor@@PEBD@std@@@3@@std@@QEAA@AEBV01@@Z
	??0?$map@W4asr_tensor@@PEBDU?$less@W4asr_tensor@@@std@@V?$allocator@U?$pair@$$CBW4asr_tensor@@PEBD@std@@@3@@std@@QEAA@V?$initializer_list@U?$pair@$$CBW4asr_tensor@@PEBD@std@@@1@@Z
	??0?$vector@DV?$allocator@D@std@@@std@@QEAA@_KAEBV?$allocator@D@1@@Z
	??0?$vector@PEAUggml_backend@@V?$allocator@PEAUggml_backend@@@std@@@std@@QEAA@AEBV01@@Z
	??0?$vector@PEBUwhisper_grammar_element@@V?$allocator@PEBUwhisper_grammar_element@@@std@@@std@@QEAA@AEBV01@@Z
	??0?$vector@U?$pair@PEAUggml_backend_device@@PEAUggml_backend_buffer_type@@@std@@V?$allocator@U?$pair@PEAUggml_backend_device@@PEAUggml_backend_buffer_type@@@std@@@2@@std@@QEAA@AEBV01@@Z
	??0?$vector@Uwhisper_token_data@@V?$allocator@Uwhisper_token_data@@@std@@@std@@QEAA@AEBV01@@Z
	??0?$vector@Vthread@std@@V?$allocator@Vthread@std@@@2@@std@@QEAA@_KAEBV?$allocator@Vthread@std@@@1@@Z
	??0?$vector@_NV?$allocator@_N@std@@@std@@QEAA@AEBV01@@Z
	??0?$wstring_convert@V?$codecvt_utf8@_W$0BAPPPP@$0A@@std@@_WV?$allocator@_W@2@V?$allocator@D@2@@std@@QEAA@XZ
	??0bad_alloc@std@@QEAA@AEBV01@@Z
	??0bad_array_new_length@std@@QEAA@AEBV01@@Z
	??0bad_array_new_length@std@@QEAA@XZ
	??0bad_cast@std@@QEAA@AEBV01@@Z
	??0bad_cast@std@@QEAA@XZ
	??0exception@std@@QEAA@AEBV01@@Z
	??0range_error@std@@QEAA@AEBV01@@Z
	??0range_error@std@@QEAA@PEBD@Z
	??0runtime_error@std@@QEAA@AEBV01@@Z
	??0runtime_error@std@@QEAA@AEBV?$basic_string@DU?$char_traits@D@std@@V?$allocator@D@2@@1@@Z
	??0runtime_error@std@@QEAA@PEBD@Z
	??0whisper_context@@QEAA@XZ
	??0whisper_decoder@@QEAA@XZ
	??0whisper_grammar@@QEAA@AEBU0@@Z
	??0whisper_state@@QEAA@XZ
	??1?$_Alloc_construct_ptr@V?$allocator@U?$_Tree_node@HPEAX@std@@@std@@@std@@QEAA@XZ
	??1?$_Alloc_construct_ptr@V?$allocator@U?$_Tree_node@U?$pair@$$CBHH@std@@PEAX@std@@@std@@@std@@QEAA@XZ
	??1?$_Alloc_construct_ptr@V?$allocator@U?$_Tree_node@U?$pair@$$CBHV?$basic_string@DU?$char_traits@D@std@@V?$allocator@D@2@@std@@@std@@PEAX@std@@@std@@@std@@QEAA@XZ
	??1?$_Alloc_construct_ptr@V?$allocator@U?$_Tree_node@U?$pair@$$CBV?$basic_string@DU?$char_traits@D@std@@V?$allocator@D@2@@std@@H@std@@PEAX@std@@@std@@@std@@QEAA@XZ
	??1?$_Alloc_construct_ptr@V?$allocator@U?$_Tree_node@U?$pair@$$CBV?$basic_string@DU?$char_traits@D@std@@V?$allocator@D@2@@std@@PEAUggml_tensor@@@std@@PEAX@std@@@std@@@std@@QEAA@XZ
	??1?$_Alloc_construct_ptr@V?$allocator@U?$_Tree_node@U?$pair@$$CBV?$basic_string@DU?$char_traits@D@std@@V?$allocator@D@2@@std@@U?$pair@HV?$basic_string@DU?$char_traits@D@std@@V?$allocator@D@2@@std@@@2@@std@@PEAX@std@@@std@@@std@@QEAA@XZ
	??1?$_Alloc_construct_ptr@V?$allocator@U?$_Tree_node@U?$pair@$$CBW4asr_system@@V?$map@W4asr_tensor@@PEBDU?$less@W4asr_tensor@@@std@@V?$allocator@U?$pair@$$CBW4asr_tensor@@PEBD@std@@@3@@std@@@std@@PEAX@std@@@std@@@std@@QEAA@XZ
	??1?$_Alloc_construct_ptr@V?$allocator@U?$_Tree_node@U?$pair@$$CBW4asr_tensor@@PEBD@std@@PEAX@std@@@std@@@std@@QEAA@XZ
	??1?$_Alloc_construct_ptr@V?$allocator@U?$_Tree_node@U?$pair@$$CBW4asr_tensor@@W4ggml_op@@@std@@PEAX@std@@@std@@@std@@QEAA@XZ
	??1?$_Alloc_construct_ptr@V?$allocator@U?$_Tree_node@U?$pair@$$CBW4e_model@@V?$basic_string@DU?$char_traits@D@std@@V?$allocator@D@2@@std@@@std@@PEAX@std@@@std@@@std@@QEAA@XZ
	??1?$_Alloc_construct_ptr@V?$allocator@U?$_Tree_node@U?$pair@$$CBW4vad_tensor@@PEBD@std@@PEAX@std@@@std@@@std@@QEAA@XZ
	??1?$_Alloc_construct_ptr@V?$allocator@U?$_Tree_node@U?$pair@$$CBW4vad_tensor@@W4ggml_op@@@std@@PEAX@std@@@std@@@std@@QEAA@XZ
	??1?$_Alloc_construct_ptr@V?$allocator@U?$_Tree_node@U?$pair@$$CBW4whisper_alignment_heads_preset@@Uwhisper_aheads@@@std@@PEAX@std@@@std@@@std@@QEAA@XZ
	??1?$_Alloc_construct_ptr@V?$allocator@U?$_Tree_node@U?$pair@QEAUggml_backend_buffer_type@@PEAUggml_context@@@std@@PEAX@std@@@std@@@std@@QEAA@XZ
	??1?$_Bt_state_t@PEBD@std@@QEAA@XZ
	??1?$_Bt_state_t@V?$_String_const_iterator@V?$_String_val@U?$_Simple_types@D@std@@@std@@@std@@@std@@QEAA@XZ
	??1?$_Matcher@PEBDDV?$regex_traits@D@std@@PEBD@std@@QEAA@XZ
	??1?$_Matcher@V?$_String_const_iterator@V?$_String_val@U?$_Simple_types@D@std@@@std@@@std@@DV?$regex_traits@D@2@V12@@std@@QEAA@XZ
	??1?$_Parser@PEBDDV?$regex_traits@D@std@@@std@@QEAA@XZ
	??1?$_Tgt_state_t@PEBD@std@@QEAA@XZ
	??1?$_Tgt_state_t@V?$_String_const_iterator@V?$_String_val@U?$_Simple_types@D@std@@@std@@@std@@@std@@QEAA@XZ
	??1?$_Tidy_guard@V?$_Builder@PEBDDV?$regex_traits@D@std@@@std@@@std@@QEAA@XZ
	??1?$_Tidy_guard@V?$vector@V?$basic_string@DU?$char_traits@D@std@@V?$allocator@D@2@@std@@V?$allocator@V?$basic_string@DU?$char_traits@D@std@@V?$allocator@D@2@@std@@@2@@std@@@std@@QEAA@XZ
	??1?$_Tidy_guard@V?$vector@V?$vector@PEBUwhisper_grammar_element@@V?$allocator@PEBUwhisper_grammar_element@@@std@@@std@@V?$allocator@V?$vector@PEBUwhisper_grammar_element@@V?$allocator@PEBUwhisper_grammar_element@@@std@@@std@@@2@@std@@@std@@QEAA@XZ
	??1?$_Tidy_guard@V?$vector@V?$vector@Uwhisper_grammar_element@@V?$allocator@Uwhisper_grammar_element@@@std@@@std@@V?$allocator@V?$vector@Uwhisper_grammar_element@@V?$allocator@Uwhisper_grammar_element@@@std@@@std@@@2@@std@@@std@@QEAA@XZ
	??1?$_Tree@V?$_Tmap_traits@V?$basic_string@DU?$char_traits@D@std@@V?$allocator@D@2@@std@@U?$pair@HV?$basic_string@DU?$char_traits@D@std@@V?$allocator@D@2@@std@@@2@U?$less@V?$basic_string@DU?$char_traits@D@std@@V?$allocator@D@2@@std@@@2@V?$allocator@U?$pair@$$CBV?$basic_string@DU?$char_traits@D@std@@V?$allocator@D@2@@std@@U?$pair@HV?$basic_string@DU?$char_traits@D@std@@V?$allocator@D@2@@std@@@2@@std@@@2@$0A@@std@@@std@@QEAA@XZ
	??1?$_Tree@V?$_Tmap_traits@W4asr_system@@V?$map@W4asr_tensor@@PEBDU?$less@W4asr_tensor@@@std@@V?$allocator@U?$pair@$$CBW4asr_tensor@@PEBD@std@@@3@@std@@U?$less@W4asr_system@@@3@V?$allocator@U?$pair@$$CBW4asr_system@@V?$map@W4asr_tensor@@PEBDU?$less@W4asr_tensor@@@std@@V?$allocator@U?$pair@$$CBW4asr_tensor@@PEBD@std@@@3@@std@@@std@@@3@$0A@@std@@@std@@QEAA@XZ
	??1?$_Tree@V?$_Tmap_traits@W4asr_tensor@@PEBDU?$less@W4asr_tensor@@@std@@V?$allocator@U?$pair@$$CBW4asr_tensor@@PEBD@std@@@3@$0A@@std@@@std@@QEAA@XZ
	??1?$_Tree@V?$_Tmap_traits@W4asr_tensor@@W4ggml_op@@U?$less@W4asr_tensor@@@std@@V?$allocator@U?$pair@$$CBW4asr_tensor@@W4ggml_op@@@std@@@4@$0A@@std@@@std@@QEAA@XZ
	??1?$_Tree@V?$_Tmap_traits@W4e_model@@V?$basic_string@DU?$char_traits@D@std@@V?$allocator@D@2@@std@@U?$less@W4e_model@@@3@V?$allocator@U?$pair@$$CBW4e_model@@V?$basic_string@DU?$char_traits@D@std@@V?$allocator@D@2@@std@@@std@@@3@$0A@@std@@@std@@QEAA@XZ
	??1?$_Tree@V?$_Tmap_traits@W4vad_tensor@@PEBDU?$less@W4vad_tensor@@@std@@V?$allocator@U?$pair@$$CBW4vad_tensor@@PEBD@std@@@3@$0A@@std@@@std@@QEAA@XZ
	??1?$_Tree@V?$_Tmap_traits@W4vad_tensor@@W4ggml_op@@U?$less@W4vad_tensor@@@std@@V?$allocator@U?$pair@$$CBW4vad_tensor@@W4ggml_op@@@std@@@4@$0A@@std@@@std@@QEAA@XZ
	??1?$_Tree@V?$_Tmap_traits@W4whisper_alignment_heads_preset@@Uwhisper_aheads@@U?$less@W4whisper_alignment_heads_preset@@@std@@V?$allocator@U?$pair@$$CBW4whisper_alignment_heads_preset@@Uwhisper_aheads@@@std@@@4@$0A@@std@@@std@@QEAA@XZ
	??1?$_Tree_head_scoped_ptr@V?$allocator@U?$_Tree_node@HPEAX@std@@@std@@V?$_Tree_val@U?$_Tree_simple_types@H@std@@@2@@std@@QEAA@XZ
	??1?$_Tree_head_scoped_ptr@V?$allocator@U?$_Tree_node@U?$pair@$$CBW4asr_tensor@@PEBD@std@@PEAX@std@@@std@@V?$_Tree_val@U?$_Tree_simple_types@U?$pair@$$CBW4asr_tensor@@PEBD@std@@@std@@@2@@std@@QEAA@XZ
	??1?$_Tree_temp_node_alloc@V?$allocator@U?$_Tree_node@U?$pair@$$CBV?$basic_string@DU?$char_traits@D@std@@V?$allocator@D@2@@std@@H@std@@PEAX@std@@@std@@@std@@QEAA@XZ
	??1?$_Tree_temp_node_alloc@V?$allocator@U?$_Tree_node@U?$pair@$$CBV?$basic_string@DU?$char_traits@D@std@@V?$allocator@D@2@@std@@U?$pair@HV?$basic_string@DU?$char_traits@D@std@@V?$allocator@D@2@@std@@@2@@std@@PEAX@std@@@std@@@std@@QEAA@XZ
	??1?$_Tree_temp_node_alloc@V?$allocator@U?$_Tree_node@U?$pair@$$CBW4asr_system@@V?$map@W4asr_tensor@@PEBDU?$less@W4asr_tensor@@@std@@V?$allocator@U?$pair@$$CBW4asr_tensor@@PEBD@std@@@3@@std@@@std@@PEAX@std@@@std@@@std@@QEAA@XZ
	??1?$_Tree_temp_node_alloc@V?$allocator@U?$_Tree_node@U?$pair@$$CBW4e_model@@V?$basic_string@DU?$char_traits@D@std@@V?$allocator@D@2@@std@@@std@@PEAX@std@@@std@@@std@@QEAA@XZ
	??1?$_Uninitialized_backout_al@V?$allocator@Uwhisper_kv_cell@@@std@@@std@@QEAA@XZ
	??1?$_Uninitialized_backout_al@V?$allocator@V?$basic_string@DU?$char_traits@D@std@@V?$allocator@D@2@@std@@@std@@@std@@QEAA@XZ
	??1?$_Uninitialized_backout_al@V?$allocator@V?$vector@PEBUwhisper_grammar_element@@V?$allocator@PEBUwhisper_grammar_element@@@std@@@std@@@std@@@std@@QEAA@XZ
	??1?$_Uninitialized_backout_al@V?$allocator@V?$vector@Uwhisper_grammar_element@@V?$allocator@Uwhisper_grammar_element@@@std@@@std@@@std@@@std@@QEAA@XZ
	??1?$_Vb_val@V?$allocator@_N@std@@@std@@QEAA@XZ
	??1?$basic_filebuf@DU?$char_traits@D@std@@@std@@UEAA@XZ
	??1?$basic_ifstream@DU?$char_traits@D@std@@@std@@UEAA@XZ
	??1?$basic_ofstream@DU?$char_traits@D@std@@@std@@UEAA@XZ
	??1?$basic_regex@DV?$regex_traits@D@std@@@std@@QEAA@XZ
	??1?$basic_string@DU?$char_traits@D@std@@V?$allocator@D@2@@std@@QEAA@XZ
	??1?$basic_string@_WU?$char_traits@_W@std@@V?$allocator@_W@2@@std@@QEAA@XZ
	??1?$codecvt_utf8@_W$0BAPPPP@$0A@@std@@UEAA@XZ
	??1?$discrete_distribution@H@std@@QEAA@XZ
	??1?$function@$$A6APEAUggml_cgraph@@XZ@std@@QEAA@XZ
	??1?$map@HHU?$less@H@std@@V?$allocator@U?$pair@$$CBHH@std@@@2@@std@@QEAA@XZ
	??1?$map@PEAUggml_backend_buffer_type@@PEAUggml_context@@U?$less@PEAUggml_backend_buffer_type@@@std@@V?$allocator@U?$pair@QEAUggml_backend_buffer_type@@PEAUggml_context@@@std@@@4@@std@@QEAA@XZ
	??1?$map@V?$basic_string@DU?$char_traits@D@std@@V?$allocator@D@2@@std@@HU?$less@V?$basic_string@DU?$char_traits@D@std@@V?$allocator@D@2@@std@@@2@V?$allocator@U?$pair@$$CBV?$basic_string@DU?$char_traits@D@std@@V?$allocator@D@2@@std@@H@std@@@2@@std@@QEAA@XZ
	??1?$map@W4asr_tensor@@PEBDU?$less@W4asr_tensor@@@std@@V?$allocator@U?$pair@$$CBW4asr_tensor@@PEBD@std@@@3@@std@@QEAA@XZ
	??1?$match_results@V?$_String_const_iterator@V?$_String_val@U?$_Simple_types@D@std@@@std@@@std@@V?$allocator@V?$sub_match@V?$_String_const_iterator@V?$_String_val@U?$_Simple_types@D@std@@@std@@@std@@@std@@@2@@std@@QEAA@XZ
	??1?$pair@$$CBHV?$basic_string@DU?$char_traits@D@std@@V?$allocator@D@2@@std@@@std@@QEAA@XZ
	??1?$pair@$$CBV?$basic_string@DU?$char_traits@D@std@@V?$allocator@D@2@@std@@U?$pair@HV?$basic_string@DU?$char_traits@D@std@@V?$allocator@D@2@@std@@@2@@std@@QEAA@XZ
	??1?$pair@$$CBW4asr_system@@V?$map@W4asr_tensor@@PEBDU?$less@W4asr_tensor@@@std@@V?$allocator@U?$pair@$$CBW4asr_tensor@@PEBD@std@@@3@@std@@@std@@QEAA@XZ
	??1?$pair@$$CBW4e_model@@V?$basic_string@DU?$char_traits@D@std@@V?$allocator@D@2@@std@@@std@@QEAA@XZ
	??1?$pair@HV?$basic_string@DU?$char_traits@D@std@@V?$allocator@D@2@@std@@@std@@QEAA@XZ
	??1?$pair@V?$basic_string@DU?$char_traits@D@std@@V?$allocator@D@2@@std@@H@std@@QEAA@XZ
	??1?$pair@V?$vector@IV?$allocator@I@std@@@std@@Uwhisper_partial_utf8@@@std@@QEAA@XZ
	??1?$regex_traits@D@std@@QEAA@XZ
	??1?$unique_ptr@Uggml_backend@@Uggml_backend_deleter@@@std@@QEAA@XZ
	??1?$unique_ptr@Uggml_context@@Uggml_context_deleter@@@std@@QEAA@XZ
	??1?$unique_ptr@V?$tuple@P6AXHPEBMAEBV?$vector@MV?$allocator@M@std@@@std@@HHHHAEBUwhisper_filters@@AEAUwhisper_mel@@@ZHPEBMV?$reference_wrapper@$$CBV?$vector@MV?$allocator@M@std@@@std@@@2@_JHHHV?$reference_wrapper@$$CBUwhisper_filters@@@2@V?$reference_wrapper@Uwhisper_mel@@@2@@std@@U?$default_delete@V?$tuple@P6AXHPEBMAEBV?$vector@MV?$allocator@M@std@@@std@@HHHHAEBUwhisper_filters@@AEAUwhisper_mel@@@ZHPEBMV?$reference_wrapper@$$CBV?$vector@MV?$allocator@M@std@@@std@@@2@_JHHHV?$reference_wrapper@$$CBUwhisper_filters@@@2@V?$reference_wrapper@Uwhisper_mel@@@2@@std@@@2@@std@@QEAA@XZ
	??1?$unique_ptr@V_Facet_base@std@@U?$default_delete@V_Facet_base@std@@@2@@std@@QEAA@XZ
	??1?$unique_ptr@V_Node_assert@std@@U?$default_delete@V_Node_assert@std@@@2@@std@@QEAA@XZ
	??1?$vector@DV?$allocator@D@std@@@std@@QEAA@XZ
	??1?$vector@HV?$allocator@H@std@@@std@@QEAA@XZ
	??1?$vector@IV?$allocator@I@std@@@std@@QEAA@XZ
	??1?$vector@MV?$allocator@M@std@@@std@@QEAA@XZ
	??1?$vector@NV?$allocator@N@std@@@std@@QEAA@XZ
	??1?$vector@PEAUggml_backend@@V?$allocator@PEAUggml_backend@@@std@@@std@@QEAA@XZ
	??1?$vector@PEAUggml_backend_buffer@@V?$allocator@PEAUggml_backend_buffer@@@std@@@std@@QEAA@XZ
	??1?$vector@PEAUggml_context@@V?$allocator@PEAUggml_context@@@std@@@std@@QEAA@XZ
	??1?$vector@PEBUwhisper_grammar_element@@V?$allocator@PEBUwhisper_grammar_element@@@std@@@std@@QEAA@XZ
	??1?$vector@U?$pair@PEAUggml_backend_device@@PEAUggml_backend_buffer_type@@@std@@V?$allocator@U?$pair@PEAUggml_backend_device@@PEAUggml_backend_buffer_type@@@std@@@2@@std@@QEAA@XZ
	??1?$vector@U?$pair@V?$vector@IV?$allocator@I@std@@@std@@Uwhisper_partial_utf8@@@std@@V?$allocator@U?$pair@V?$vector@IV?$allocator@I@std@@@std@@Uwhisper_partial_utf8@@@std@@@2@@std@@QEAA@XZ
	??1?$vector@U_Loop_vals_t@std@@V?$allocator@U_Loop_vals_t@std@@@2@@std@@QEAA@XZ
	??1?$vector@Uwhisper_grammar_candidate@@V?$allocator@Uwhisper_grammar_candidate@@@std@@@std@@QEAA@XZ
	??1?$vector@Uwhisper_kv_cell@@V?$allocator@Uwhisper_kv_cell@@@std@@@std@@QEAA@XZ
	??1?$vector@Uwhisper_layer_decoder@@V?$allocator@Uwhisper_layer_decoder@@@std@@@std@@QEAA@XZ
	??1?$vector@Uwhisper_layer_encoder@@V?$allocator@Uwhisper_layer_encoder@@@std@@@std@@QEAA@XZ
	??1?$vector@Uwhisper_segment@@V?$allocator@Uwhisper_segment@@@std@@@std@@QEAA@XZ
	??1?$vector@Uwhisper_token_data@@V?$allocator@Uwhisper_token_data@@@std@@@std@@QEAA@XZ
	??1?$vector@Uwhisper_vad_segment@@V?$allocator@Uwhisper_vad_segment@@@std@@@std@@QEAA@XZ
	??1?$vector@V?$basic_string@DU?$char_traits@D@std@@V?$allocator@D@2@@std@@V?$allocator@V?$basic_string@DU?$char_traits@D@std@@V?$allocator@D@2@@std@@@2@@std@@QEAA@XZ
	??1?$vector@V?$sub_match@V?$_String_const_iterator@V?$_String_val@U?$_Simple_types@D@std@@@std@@@std@@@std@@V?$allocator@V?$sub_match@V?$_String_const_iterator@V?$_String_val@U?$_Simple_types@D@std@@@std@@@std@@@std@@@2@@std@@QEAA@XZ
	??1?$vector@V?$vector@PEBUwhisper_grammar_element@@V?$allocator@PEBUwhisper_grammar_element@@@std@@@std@@V?$allocator@V?$vector@PEBUwhisper_grammar_element@@V?$allocator@PEBUwhisper_grammar_element@@@std@@@std@@@2@@std@@QEAA@XZ
	??1?$vector@V?$vector@Uwhisper_grammar_element@@V?$allocator@Uwhisper_grammar_element@@@std@@@std@@V?$allocator@V?$vector@Uwhisper_grammar_element@@V?$allocator@Uwhisper_grammar_element@@@std@@@std@@@2@@std@@QEAA@XZ
	??1?$vector@Vthread@std@@V?$allocator@Vthread@std@@@2@@std@@QEAA@XZ
	??1?$vector@_NV?$allocator@_N@std@@@std@@QEAA@XZ
	??1?$wstring_convert@V?$codecvt_utf8@_W$0BAPPPP@$0A@@std@@_WV?$allocator@_W@2@V?$allocator@D@2@@std@@UEAA@XZ
	??1_Node_base@std@@UEAA@XZ
	??1_Sentry_base@?$basic_ostream@DU?$char_traits@D@std@@@std@@QEAA@XZ
	??1bad_array_new_length@std@@UEAA@XZ
	??1bad_cast@std@@UEAA@XZ
	??1exception@std@@UEAA@XZ
	??1locale@std@@QEAA@XZ
	??1param_type@?$discrete_distribution@H@std@@QEAA@XZ
	??1range_error@std@@UEAA@XZ
	??1runtime_error@std@@UEAA@XZ
	??1sentry@?$basic_ostream@DU?$char_traits@D@std@@@std@@QEAA@XZ
	??1whisper_decoder@@QEAA@XZ
	??1whisper_filters@@QEAA@XZ
	??1whisper_kv_cache@@QEAA@XZ
	??1whisper_mel@@QEAA@XZ
	??1whisper_model@@QEAA@XZ
	??1whisper_segment@@QEAA@XZ
	??1whisper_sequence@@QEAA@XZ
	??1whisper_state@@QEAA@XZ
	??1whisper_vad_context@@QEAA@XZ
	??1whisper_vad_model@@QEAA@XZ
	??4?$_Tgt_state_t@PEBD@std@@QEAAAEAV01@AEBV01@@Z
	??4?$_Tgt_state_t@V?$_String_const_iterator@V?$_String_val@U?$_Simple_types@D@std@@@std@@@std@@@std@@QEAAAEAV01@AEBV01@@Z
	??4?$basic_string@DU?$char_traits@D@std@@V?$allocator@D@2@@std@@QEAAAEAV01@QEBD@Z
	??4?$vector@PEAUggml_backend@@V?$allocator@PEAUggml_backend@@@std@@@std@@QEAAAEAV01@$$QEAV01@@Z
	??4?$vector@Uwhisper_token_data@@V?$allocator@Uwhisper_token_data@@@std@@@std@@QEAAAEAV01@AEBV01@@Z
	??4?$vector@V?$vector@PEBUwhisper_grammar_element@@V?$allocator@PEBUwhisper_grammar_element@@@std@@@std@@V?$allocator@V?$vector@PEBUwhisper_grammar_element@@V?$allocator@PEBUwhisper_grammar_element@@@std@@@std@@@2@@std@@QEAAAEAV01@$$QEAV01@@Z
	??4?$vector@_NV?$allocator@_N@std@@@std@@QEAAAEAV01@AEBV01@@Z
	??4whisper_grammar@@QEAAAEAU0@$$QEAU0@@Z
	??A?$basic_string@DU?$char_traits@D@std@@V?$allocator@D@2@@std@@QEAAAEAD_K@Z
	??A?$map@HV?$basic_string@DU?$char_traits@D@std@@V?$allocator@D@2@@std@@U?$less@H@2@V?$allocator@U?$pair@$$CBHV?$basic_string@DU?$char_traits@D@std@@V?$allocator@D@2@@std@@@std@@@2@@std@@QEAAAEAV?$basic_string@DU?$char_traits@D@std@@V?$allocator@D@2@@1@AEBH@Z
	??A?$map@PEAUggml_backend_buffer_type@@PEAUggml_context@@U?$less@PEAUggml_backend_buffer_type@@@std@@V?$allocator@U?$pair@QEAUggml_backend_buffer_type@@PEAUggml_context@@@std@@@4@@std@@QEAAAEAPEAUggml_context@@AEBQEAUggml_backend_buffer_type@@@Z
	??A?$map@V?$basic_string@DU?$char_traits@D@std@@V?$allocator@D@2@@std@@PEAUggml_tensor@@U?$less@V?$basic_string@DU?$char_traits@D@std@@V?$allocator@D@2@@std@@@2@V?$allocator@U?$pair@$$CBV?$basic_string@DU?$char_traits@D@std@@V?$allocator@D@2@@std@@PEAUggml_tensor@@@std@@@2@@std@@QEAAAEAPEAUggml_tensor@@$$QEAV?$basic_string@DU?$char_traits@D@std@@V?$allocator@D@2@@1@@Z
	??A?$vector@Uwhisper_layer_decoder@@V?$allocator@Uwhisper_layer_decoder@@@std@@@std@@QEAAAEAUwhisper_layer_decoder@@_K@Z
	??E?$_Tree_unchecked_const_iterator@V?$_Tree_val@U?$_Tree_simple_types@U?$pair@$$CBV?$basic_string@DU?$char_traits@D@std@@V?$allocator@D@2@@std@@U?$pair@HV?$basic_string@DU?$char_traits@D@std@@V?$allocator@D@2@@std@@@2@@std@@@std@@@std@@U_Iterator_base0@2@@std@@QEAAAEAV01@XZ
	??E?$_Tree_unchecked_iterator@V?$_Tree_val@U?$_Tree_simple_types@U?$pair@QEAUggml_backend_buffer_type@@PEAUggml_context@@@std@@@std@@@std@@@std@@QEAAAEAV01@XZ
	??H?$_Vb_iterator@U?$_Wrap_alloc@V?$allocator@I@std@@@std@@@std@@QEBA?AV01@_J@Z
	??_7?$_Node_class@DV?$regex_traits@D@std@@@std@@6B@
	??_7?$_Node_str@D@std@@6B@
	??_7?$basic_filebuf@DU?$char_traits@D@std@@@std@@6B@
	??_7?$basic_ifstream@DU?$char_traits@D@std@@@std@@6B@
	??_7?$basic_ofstream@DU?$char_traits@D@std@@@std@@6B@
	??_7?$codecvt_utf8@_W$0BAPPPP@$0A@@std@@6B@
	??_7?$collate@D@std@@6B@
	??_7?$wstring_convert@V?$codecvt_utf8@_W$0BAPPPP@$0A@@std@@_WV?$allocator@_W@2@V?$allocator@D@2@@std@@6B@
	??_7_Node_assert@std@@6B@
	??_7_Node_back@std@@6B@
	??_7_Node_base@std@@6B@
	??_7_Node_capture@std@@6B@
	??_7_Node_end_group@std@@6B@
	??_7_Node_end_rep@std@@6B@
	??_7_Node_endif@std@@6B@
	??_7_Node_if@std@@6B@
	??_7_Node_rep@std@@6B@
	??_7_Root_node@std@@6B@
	??_7bad_alloc@std@@6B@
	??_7bad_array_new_length@std@@6B@
	??_7bad_cast@std@@6B@
	??_7exception@std@@6B@
	??_7range_error@std@@6B@
	??_7runtime_error@std@@6B@
	??_D?$basic_ifstream@DU?$char_traits@D@std@@@std@@QEAAXXZ
	??_D?$basic_ofstream@DU?$char_traits@D@std@@@std@@QEAAXXZ
	?_Add_backreference@?$_Builder@PEBDDV?$regex_traits@D@std@@@std@@QEAAXI@Z
	?_Add_bol@?$_Builder@PEBDDV?$regex_traits@D@std@@@std@@QEAAXXZ
	?_Add_char@?$_Builder@PEBDDV?$regex_traits@D@std@@@std@@QEAAXD@Z
	?_Add_char_to_array@?$_Builder@PEBDDV?$regex_traits@D@std@@@std@@AEAAXD@Z
	?_Add_char_to_bitmap@?$_Builder@PEBDDV?$regex_traits@D@std@@@std@@AEAAXD@Z
	?_Add_char_to_class@?$_Builder@PEBDDV?$regex_traits@D@std@@@std@@QEAAXD@Z
	?_Add_class@?$_Builder@PEBDDV?$regex_traits@D@std@@@std@@QEAAXXZ
	?_Add_coll@?$_Builder@PEBDDV?$regex_traits@D@std@@@std@@QEAAXPEBD0_J@Z
	?_Add_dot@?$_Builder@PEBDDV?$regex_traits@D@std@@@std@@QEAAXXZ
	?_Add_elts@?$_Builder@PEBDDV?$regex_traits@D@std@@@std@@AEAAXPEAV?$_Node_class@DV?$regex_traits@D@std@@@2@F_N@Z
	?_Add_eol@?$_Builder@PEBDDV?$regex_traits@D@std@@@std@@QEAAXXZ
	?_Add_equiv@?$_Builder@PEBDDV?$regex_traits@D@std@@@std@@QEAAXPEBD0_J@Z
	?_Add_named_class@?$_Builder@PEBDDV?$regex_traits@D@std@@@std@@QEAAXF_N@Z
	?_Add_range@?$_Builder@PEBDDV?$regex_traits@D@std@@@std@@QEAAXDD@Z
	?_Add_rep@?$_Builder@PEBDDV?$regex_traits@D@std@@@std@@QEAAXHH_N@Z
	?_Add_str_node@?$_Builder@PEBDDV?$regex_traits@D@std@@@std@@AEAAXXZ
	?_Add_wbound@?$_Builder@PEBDDV?$regex_traits@D@std@@@std@@QEAAXXZ
	?_Alternative@?$_Parser@PEBDDV?$regex_traits@D@std@@@std@@AEAA_NXZ
	?_AtomEscape@?$_Parser@PEBDDV?$regex_traits@D@std@@@std@@AEAAXXZ
	?_Beg_expr@?$_Builder@PEBDDV?$regex_traits@D@std@@@std@@AEBA_NPEAV_Node_base@2@@Z
	?_Beg_expr@?$_Builder@PEBDDV?$regex_traits@D@std@@@std@@QEBA_NXZ
	?_Begin_assert_group@?$_Builder@PEBDDV?$regex_traits@D@std@@@std@@QEAAPEAV_Node_base@2@_N@Z
	?_Begin_capture_group@?$_Builder@PEBDDV?$regex_traits@D@std@@@std@@QEAAPEAV_Node_base@2@I@Z
	?_Begin_group@?$_Builder@PEBDDV?$regex_traits@D@std@@@std@@QEAAPEAV_Node_base@2@XZ
	?_Begin_if@?$_Builder@PEBDDV?$regex_traits@D@std@@@std@@QEAAPEAV_Node_base@2@PEAV32@@Z
	?_Better_match@?$_Matcher@PEBDDV?$regex_traits@D@std@@PEBD@std@@AEAA_NXZ
	?_Better_match@?$_Matcher@V?$_String_const_iterator@V?$_String_val@U?$_Simple_types@D@std@@@std@@@std@@DV?$regex_traits@D@2@V12@@std@@AEAA_NXZ
	?_Buy_nonzero@?$vector@DV?$allocator@D@std@@@std@@AEAAX_K@Z
	?_Buy_raw@?$vector@V?$vector@Uwhisper_grammar_element@@V?$allocator@Uwhisper_grammar_element@@@std@@@std@@V?$allocator@V?$vector@Uwhisper_grammar_element@@V?$allocator@Uwhisper_grammar_element@@@std@@@std@@@2@@std@@AEAAX_K@Z
	?_Calculate_loop_simplicity@std@@YAXPEAV_Node_base@1@0PEAV_Node_rep@1@@Z
	?_Change_array@?$vector@DV?$allocator@D@std@@@std@@AEAAXQEAD_K1@Z
	?_Change_array@?$vector@HV?$allocator@H@std@@@std@@AEAAXQEAH_K1@Z
	?_Change_array@?$vector@IV?$allocator@I@std@@@std@@AEAAXQEAI_K1@Z
	?_Change_array@?$vector@MV?$allocator@M@std@@@std@@AEAAXQEAM_K1@Z
	?_Change_array@?$vector@PEBUwhisper_grammar_element@@V?$allocator@PEBUwhisper_grammar_element@@@std@@@std@@AEAAXQEAPEBUwhisper_grammar_element@@_K1@Z
	?_Change_array@?$vector@U?$pair@PEAUggml_backend_device@@PEAUggml_backend_buffer_type@@@std@@V?$allocator@U?$pair@PEAUggml_backend_device@@PEAUggml_backend_buffer_type@@@std@@@2@@std@@AEAAXQEAU?$pair@PEAUggml_backend_device@@PEAUggml_backend_buffer_type@@@2@_K1@Z
	?_Change_array@?$vector@U?$whisper_pair@NH@@V?$allocator@U?$whisper_pair@NH@@@std@@@std@@AEAAXQEAU?$whisper_pair@NH@@_K1@Z
	?_Change_array@?$vector@Uvad_segment_info@whisper_state@@V?$allocator@Uvad_segment_info@whisper_state@@@std@@@std@@AEAAXQEAUvad_segment_info@whisper_state@@_K1@Z
	?_Change_array@?$vector@Uwhisper_grammar_candidate@@V?$allocator@Uwhisper_grammar_candidate@@@std@@@std@@AEAAXQEAUwhisper_grammar_candidate@@_K1@Z
	?_Change_array@?$vector@Uwhisper_grammar_element@@V?$allocator@Uwhisper_grammar_element@@@std@@@std@@AEAAXQEAUwhisper_grammar_element@@_K1@Z
	?_Change_array@?$vector@Uwhisper_token_data@@V?$allocator@Uwhisper_token_data@@@std@@@std@@AEAAXQEAUwhisper_token_data@@_K1@Z
	?_Change_array@?$vector@V?$vector@PEBUwhisper_grammar_element@@V?$allocator@PEBUwhisper_grammar_element@@@std@@@std@@V?$allocator@V?$vector@PEBUwhisper_grammar_element@@V?$allocator@PEBUwhisper_grammar_element@@@std@@@std@@@2@@std@@AEAAXQEAV?$vector@PEBUwhisper_grammar_element@@V?$allocator@PEBUwhisper_grammar_element@@@std@@@2@_K1@Z
	?_Char_to_elts@?$_Builder@PEBDDV?$regex_traits@D@std@@@std@@AEAAXPEBD0_JPEAPEAU?$_Sequence@D@2@@Z
	?_CharacterClass@?$_Parser@PEBDDV?$regex_traits@D@std@@@std@@AEAAXXZ
	?_CharacterClassEscape@?$_Parser@PEBDDV?$regex_traits@D@std@@@std@@AEAA_N_N@Z
	?_CharacterEscape@?$_Parser@PEBDDV?$regex_traits@D@std@@@std@@AEAA_NXZ
	?_ClassAtom@?$_Parser@PEBDDV?$regex_traits@D@std@@@std@@AEAA?AW4_Prs_ret@2@XZ
	?_ClassEscape@?$_Parser@PEBDDV?$regex_traits@D@std@@@std@@AEAA?AW4_Prs_ret@2@_N@Z
	?_ClassRanges@?$_Parser@PEBDDV?$regex_traits@D@std@@@std@@AEAAXXZ
	?_Clear_and_reserve_geometric@?$vector@HV?$allocator@H@std@@@std@@AEAAX_K@Z
	?_Clear_and_reserve_geometric@?$vector@IV?$allocator@I@std@@@std@@AEAAX_K@Z
	?_Clear_and_reserve_geometric@?$vector@PEBUwhisper_grammar_element@@V?$allocator@PEBUwhisper_grammar_element@@@std@@@std@@AEAAX_K@Z
	?_Clear_and_reserve_geometric@?$vector@U_Grp_t@?$_Tgt_state_t@PEBD@std@@V?$allocator@U_Grp_t@?$_Tgt_state_t@PEBD@std@@@3@@std@@AEAAX_K@Z
	?_Clear_and_reserve_geometric@?$vector@U_Grp_t@?$_Tgt_state_t@V?$_String_const_iterator@V?$_String_val@U?$_Simple_types@D@std@@@std@@@std@@@std@@V?$allocator@U_Grp_t@?$_Tgt_state_t@V?$_String_const_iterator@V?$_String_val@U?$_Simple_types@D@std@@@std@@@std@@@std@@@3@@std@@AEAAX_K@Z
	?_Clear_and_reserve_geometric@?$vector@Uwhisper_grammar_element@@V?$allocator@Uwhisper_grammar_element@@@std@@@std@@AEAAX_K@Z
	?_Clear_and_reserve_geometric@?$vector@Uwhisper_token_data@@V?$allocator@Uwhisper_token_data@@@std@@@std@@AEAAX_K@Z
	?_Compile@?$_Parser@PEBDDV?$regex_traits@D@std@@@std@@QEAAPEAV_Root_node@2@XZ
	?_DecimalDigits@?$_Parser@PEBDDV?$regex_traits@D@std@@@std@@AEAA_NXZ
	?_Destroy@?$vector@U?$pair@V?$vector@IV?$allocator@I@std@@@std@@Uwhisper_partial_utf8@@@std@@V?$allocator@U?$pair@V?$vector@IV?$allocator@I@std@@@std@@Uwhisper_partial_utf8@@@std@@@2@@std@@AEAAXPEAU?$pair@V?$vector@IV?$allocator@I@std@@@std@@Uwhisper_partial_utf8@@@2@0@Z
	?_Destroy@?$vector@Uwhisper_kv_cell@@V?$allocator@Uwhisper_kv_cell@@@std@@@std@@AEAAXPEAUwhisper_kv_cell@@0@Z
	?_Destroy@?$vector@Uwhisper_segment@@V?$allocator@Uwhisper_segment@@@std@@@std@@AEAAXPEAUwhisper_segment@@0@Z
	?_Destroy@?$vector@V?$basic_string@DU?$char_traits@D@std@@V?$allocator@D@2@@std@@V?$allocator@V?$basic_string@DU?$char_traits@D@std@@V?$allocator@D@2@@std@@@2@@std@@AEAAXPEAV?$basic_string@DU?$char_traits@D@std@@V?$allocator@D@2@@2@0@Z
	?_Destroy@?$vector@V?$vector@PEBUwhisper_grammar_element@@V?$allocator@PEBUwhisper_grammar_element@@@std@@@std@@V?$allocator@V?$vector@PEBUwhisper_grammar_element@@V?$allocator@PEBUwhisper_grammar_element@@@std@@@std@@@2@@std@@AEAAXPEAV?$vector@PEBUwhisper_grammar_element@@V?$allocator@PEBUwhisper_grammar_element@@@std@@@2@0@Z
	?_Disjunction@?$_Parser@PEBDDV?$regex_traits@D@std@@@std@@AEAAXXZ
	?_Do_assert_group@?$_Parser@PEBDDV?$regex_traits@D@std@@@std@@AEAAX_N@Z
	?_Do_capture_group@?$_Parser@PEBDDV?$regex_traits@D@std@@@std@@AEAAXXZ
	?_Do_class@?$_Matcher@PEBDDV?$regex_traits@D@std@@PEBD@std@@AEAA_NPEAV_Node_base@2@@Z
	?_Do_class@?$_Matcher@V?$_String_const_iterator@V?$_String_val@U?$_Simple_types@D@std@@@std@@@std@@DV?$regex_traits@D@2@V12@@std@@AEAA_NPEAV_Node_base@2@@Z
	?_Do_digits@?$_Parser@PEBDDV?$regex_traits@D@std@@@std@@AEAAHHH@Z
	?_Do_ex_class@?$_Parser@PEBDDV?$regex_traits@D@std@@@std@@AEAAXW4_Meta_type@2@@Z
	?_Do_ffn@?$_Parser@PEBDDV?$regex_traits@D@std@@@std@@AEAA_ND@Z
	?_Do_ffnx@?$_Parser@PEBDDV?$regex_traits@D@std@@@std@@AEAA_ND@Z
	?_Do_if@?$_Matcher@PEBDDV?$regex_traits@D@std@@PEBD@std@@AEAA_NPEAV_Node_if@2@@Z
	?_Do_if@?$_Matcher@V?$_String_const_iterator@V?$_String_val@U?$_Simple_types@D@std@@@std@@@std@@DV?$regex_traits@D@2@V12@@std@@AEAA_NPEAV_Node_if@2@@Z
	?_Do_noncapture_group@?$_Parser@PEBDDV?$regex_traits@D@std@@@std@@AEAAXXZ
	?_Do_rep0@?$_Matcher@PEBDDV?$regex_traits@D@std@@PEBD@std@@AEAA_NPEAV_Node_rep@2@_N@Z
	?_Do_rep0@?$_Matcher@V?$_String_const_iterator@V?$_String_val@U?$_Simple_types@D@std@@@std@@@std@@DV?$regex_traits@D@2@V12@@std@@AEAA_NPEAV_Node_rep@2@_N@Z
	?_Do_rep@?$_Matcher@PEBDDV?$regex_traits@D@std@@PEBD@std@@AEAA_NPEAV_Node_rep@2@_NH@Z
	?_Do_rep@?$_Matcher@V?$_String_const_iterator@V?$_String_val@U?$_Simple_types@D@std@@@std@@@std@@DV?$regex_traits@D@2@V12@@std@@AEAA_NPEAV_Node_rep@2@_NH@Z
	?_Else_if@?$_Builder@PEBDDV?$regex_traits@D@std@@@std@@QEAAXPEAV_Node_base@2@0@Z
	?_End_assert_group@?$_Builder@PEBDDV?$regex_traits@D@std@@@std@@QEAAXPEAV_Node_base@2@@Z
	?_End_group@?$_Builder@PEBDDV?$regex_traits@D@std@@@std@@QEAAXPEAV_Node_base@2@@Z
	?_End_pattern@?$_Builder@PEBDDV?$regex_traits@D@std@@@std@@QEAAPEAV_Root_node@2@XZ
	?_Endwrite@?$basic_filebuf@DU?$char_traits@D@std@@@std@@IEAA_NXZ
	?_Error@?$_Parser@PEBDDV?$regex_traits@D@std@@@std@@AEAAXW4error_type@regex_constants@2@@Z
	?_Expect@?$_Parser@PEBDDV?$regex_traits@D@std@@@std@@AEAAXW4_Meta_type@2@W4error_type@regex_constants@2@@Z
	?_Extract@?$_Tree_val@U?$_Tree_simple_types@H@std@@@std@@QEAAPEAU?$_Tree_node@HPEAX@2@V?$_Tree_unchecked_const_iterator@V?$_Tree_val@U?$_Tree_simple_types@H@std@@@std@@U_Iterator_base0@2@@2@@Z
	?_Get_bmax@?$_Builder@PEBDDV?$regex_traits@D@std@@@std@@AEBAIXZ
	?_Get_ncap@?$_Matcher@PEBDDV?$regex_traits@D@std@@PEBD@std@@AEBAIXZ
	?_Get_ncap@?$_Matcher@V?$_String_const_iterator@V?$_String_val@U?$_Simple_types@D@std@@@std@@@std@@DV?$regex_traits@D@2@V12@@std@@AEBAIXZ
	?_Get_tmax@?$_Builder@PEBDDV?$regex_traits@D@std@@@std@@AEBAIXZ
	?_Getal@?$_Tree@V?$_Tmap_traits@W4asr_tensor@@PEBDU?$less@W4asr_tensor@@@std@@V?$allocator@U?$pair@$$CBW4asr_tensor@@PEBD@std@@@3@$0A@@std@@@std@@IEAAAEAV?$allocator@U?$_Tree_node@U?$pair@$$CBW4asr_tensor@@PEBD@std@@PEAX@std@@@2@XZ
	?_Getal@?$_Tree@V?$_Tset_traits@HU?$less@H@std@@V?$allocator@H@2@$0A@@std@@@std@@IEAAAEAV?$allocator@U?$_Tree_node@HPEAX@std@@@2@XZ
	?_Getal@?$vector@DV?$allocator@D@std@@@std@@AEAAAEAV?$allocator@D@2@XZ
	?_Getal@?$vector@EV?$allocator@E@std@@@std@@AEAAAEAV?$allocator@E@2@XZ
	?_Getal@?$vector@HV?$allocator@H@std@@@std@@AEAAAEAV?$allocator@H@2@XZ
	?_Getal@?$vector@IV?$allocator@I@std@@@std@@AEAAAEAV?$allocator@I@2@XZ
	?_Getal@?$vector@MV?$allocator@M@std@@@std@@AEAAAEAV?$allocator@M@2@XZ
	?_Getal@?$vector@U?$whisper_pair@NH@@V?$allocator@U?$whisper_pair@NH@@@std@@@std@@AEAAAEAV?$allocator@U?$whisper_pair@NH@@@2@XZ
	?_Getal@?$vector@U_Grp_t@?$_Tgt_state_t@PEBD@std@@V?$allocator@U_Grp_t@?$_Tgt_state_t@PEBD@std@@@3@@std@@AEAAAEAV?$allocator@U_Grp_t@?$_Tgt_state_t@PEBD@std@@@2@XZ
	?_Getal@?$vector@U_Grp_t@?$_Tgt_state_t@V?$_String_const_iterator@V?$_String_val@U?$_Simple_types@D@std@@@std@@@std@@@std@@V?$allocator@U_Grp_t@?$_Tgt_state_t@V?$_String_const_iterator@V?$_String_val@U?$_Simple_types@D@std@@@std@@@std@@@std@@@3@@std@@AEAAAEAV?$allocator@U_Grp_t@?$_Tgt_state_t@V?$_String_const_iterator@V?$_String_val@U?$_Simple_types@D@std@@@std@@@std@@@std@@@2@XZ
	?_Getal@?$vector@U_Loop_vals_t@std@@V?$allocator@U_Loop_vals_t@std@@@2@@std@@AEAAAEAV?$allocator@U_Loop_vals_t@std@@@2@XZ
	?_Getal@?$vector@Uvad_segment_info@whisper_state@@V?$allocator@Uvad_segment_info@whisper_state@@@std@@@std@@AEAAAEAV?$allocator@Uvad_segment_info@whisper_state@@@2@XZ
	?_Getal@?$vector@Uwhisper_kv_cell@@V?$allocator@Uwhisper_kv_cell@@@std@@@std@@AEAAAEAV?$allocator@Uwhisper_kv_cell@@@2@XZ
	?_Getal@?$vector@Uwhisper_layer_decoder@@V?$allocator@Uwhisper_layer_decoder@@@std@@@std@@AEAAAEAV?$allocator@Uwhisper_layer_decoder@@@2@XZ
	?_Getal@?$vector@Uwhisper_layer_encoder@@V?$allocator@Uwhisper_layer_encoder@@@std@@@std@@AEAAAEAV?$allocator@Uwhisper_layer_encoder@@@2@XZ
	?_Getal@?$vector@Uwhisper_token_data@@V?$allocator@Uwhisper_token_data@@@std@@@std@@AEAAAEAV?$allocator@Uwhisper_token_data@@@2@XZ
	?_Getal@?$vector@Uwhisper_vad_segment@@V?$allocator@Uwhisper_vad_segment@@@std@@@std@@AEAAAEAV?$allocator@Uwhisper_vad_segment@@@2@XZ
	?_Getal@?$vector@V?$sub_match@PEBD@std@@V?$allocator@V?$sub_match@PEBD@std@@@2@@std@@AEAAAEAV?$allocator@V?$sub_match@PEBD@std@@@2@XZ
	?_Getal@?$vector@V?$sub_match@V?$_String_const_iterator@V?$_String_val@U?$_Simple_types@D@std@@@std@@@std@@@std@@V?$allocator@V?$sub_match@V?$_String_const_iterator@V?$_String_val@U?$_Simple_types@D@std@@@std@@@std@@@std@@@2@@std@@AEAAAEAV?$allocator@V?$sub_match@V?$_String_const_iterator@V?$_String_val@U?$_Simple_types@D@std@@@std@@@std@@@std@@@2@XZ
	?_Getmark@?$_Builder@PEBDDV?$regex_traits@D@std@@@std@@QEBAPEAV_Node_base@2@XZ
	?_HexDigits@?$_Parser@PEBDDV?$regex_traits@D@std@@@std@@AEAAXH@Z
	?_IdentityEscape@?$_Parser@PEBDDV?$regex_traits@D@std@@@std@@AEAA_NXZ
	?_Init@param_type@?$discrete_distribution@H@std@@QEAAX_N@Z
	?_Insert_node@?$_Builder@PEBDDV?$regex_traits@D@std@@@std@@CAXPEAV_Node_base@2@0@Z
	?_Insert_node@?$_Tree_val@U?$_Tree_simple_types@H@std@@@std@@QEAAPEAU?$_Tree_node@HPEAX@2@U?$_Tree_id@PEAU?$_Tree_node@HPEAX@std@@@2@QEAU32@@Z
	?_Insert_node@?$_Tree_val@U?$_Tree_simple_types@U?$pair@$$CBHH@std@@@std@@@std@@QEAAPEAU?$_Tree_node@U?$pair@$$CBHH@std@@PEAX@2@U?$_Tree_id@PEAU?$_Tree_node@U?$pair@$$CBHH@std@@PEAX@std@@@2@QEAU32@@Z
	?_Insert_node@?$_Tree_val@U?$_Tree_simple_types@U?$pair@$$CBHV?$basic_string@DU?$char_traits@D@std@@V?$allocator@D@2@@std@@@std@@@std@@@std@@QEAAPEAU?$_Tree_node@U?$pair@$$CBHV?$basic_string@DU?$char_traits@D@std@@V?$allocator@D@2@@std@@@std@@PEAX@2@U?$_Tree_id@PEAU?$_Tree_node@U?$pair@$$CBHV?$basic_string@DU?$char_traits@D@std@@V?$allocator@D@2@@std@@@std@@PEAX@std@@@2@QEAU32@@Z
	?_Insert_node@?$_Tree_val@U?$_Tree_simple_types@U?$pair@$$CBV?$basic_string@DU?$char_traits@D@std@@V?$allocator@D@2@@std@@H@std@@@std@@@std@@QEAAPEAU?$_Tree_node@U?$pair@$$CBV?$basic_string@DU?$char_traits@D@std@@V?$allocator@D@2@@std@@H@std@@PEAX@2@U?$_Tree_id@PEAU?$_Tree_node@U?$pair@$$CBV?$basic_string@DU?$char_traits@D@std@@V?$allocator@D@2@@std@@H@std@@PEAX@std@@@2@QEAU32@@Z
	?_Insert_node@?$_Tree_val@U?$_Tree_simple_types@U?$pair@$$CBV?$basic_string@DU?$char_traits@D@std@@V?$allocator@D@2@@std@@PEAUggml_tensor@@@std@@@std@@@std@@QEAAPEAU?$_Tree_node@U?$pair@$$CBV?$basic_string@DU?$char_traits@D@std@@V?$allocator@D@2@@std@@PEAUggml_tensor@@@std@@PEAX@2@U?$_Tree_id@PEAU?$_Tree_node@U?$pair@$$CBV?$basic_string@DU?$char_traits@D@std@@V?$allocator@D@2@@std@@PEAUggml_tensor@@@std@@PEAX@std@@@2@QEAU32@@Z
	?_Insert_node@?$_Tree_val@U?$_Tree_simple_types@U?$pair@$$CBV?$basic_string@DU?$char_traits@D@std@@V?$allocator@D@2@@std@@U?$pair@HV?$basic_string@DU?$char_traits@D@std@@V?$allocator@D@2@@std@@@2@@std@@@std@@@std@@QEAAPEAU?$_Tree_node@U?$pair@$$CBV?$basic_string@DU?$char_traits@D@std@@V?$allocator@D@2@@std@@U?$pair@HV?$basic_string@DU?$char_traits@D@std@@V?$allocator@D@2@@std@@@2@@std@@PEAX@2@U?$_Tree_id@PEAU?$_Tree_node@U?$pair@$$CBV?$basic_string@DU?$char_traits@D@std@@V?$allocator@D@2@@std@@U?$pair@HV?$basic_string@DU?$char_traits@D@std@@V?$allocator@D@2@@std@@@2@@std@@PEAX@std@@@2@QEAU32@@Z
	?_Insert_node@?$_Tree_val@U?$_Tree_simple_types@U?$pair@$$CBW4asr_system@@V?$map@W4asr_tensor@@PEBDU?$less@W4asr_tensor@@@std@@V?$allocator@U?$pair@$$CBW4asr_tensor@@PEBD@std@@@3@@std@@@std@@@std@@@std@@QEAAPEAU?$_Tree_node@U?$pair@$$CBW4asr_system@@V?$map@W4asr_tensor@@PEBDU?$less@W4asr_tensor@@@std@@V?$allocator@U?$pair@$$CBW4asr_tensor@@PEBD@std@@@3@@std@@@std@@PEAX@2@U?$_Tree_id@PEAU?$_Tree_node@U?$pair@$$CBW4asr_system@@V?$map@W4asr_tensor@@PEBDU?$less@W4asr_tensor@@@std@@V?$allocator@U?$pair@$$CBW4asr_tensor@@PEBD@std@@@3@@std@@@std@@PEAX@std@@@2@QEAU32@@Z
	?_Insert_node@?$_Tree_val@U?$_Tree_simple_types@U?$pair@$$CBW4asr_tensor@@PEBD@std@@@std@@@std@@QEAAPEAU?$_Tree_node@U?$pair@$$CBW4asr_tensor@@PEBD@std@@PEAX@2@U?$_Tree_id@PEAU?$_Tree_node@U?$pair@$$CBW4asr_tensor@@PEBD@std@@PEAX@std@@@2@QEAU32@@Z
	?_Insert_node@?$_Tree_val@U?$_Tree_simple_types@U?$pair@$$CBW4asr_tensor@@W4ggml_op@@@std@@@std@@@std@@QEAAPEAU?$_Tree_node@U?$pair@$$CBW4asr_tensor@@W4ggml_op@@@std@@PEAX@2@U?$_Tree_id@PEAU?$_Tree_node@U?$pair@$$CBW4asr_tensor@@W4ggml_op@@@std@@PEAX@std@@@2@QEAU32@@Z
	?_Insert_node@?$_Tree_val@U?$_Tree_simple_types@U?$pair@$$CBW4e_model@@V?$basic_string@DU?$char_traits@D@std@@V?$allocator@D@2@@std@@@std@@@std@@@std@@QEAAPEAU?$_Tree_node@U?$pair@$$CBW4e_model@@V?$basic_string@DU?$char_traits@D@std@@V?$allocator@D@2@@std@@@std@@PEAX@2@U?$_Tree_id@PEAU?$_Tree_node@U?$pair@$$CBW4e_model@@V?$basic_string@DU?$char_traits@D@std@@V?$allocator@D@2@@std@@@std@@PEAX@std@@@2@QEAU32@@Z
	?_Insert_node@?$_Tree_val@U?$_Tree_simple_types@U?$pair@$$CBW4vad_tensor@@PEBD@std@@@std@@@std@@QEAAPEAU?$_Tree_node@U?$pair@$$CBW4vad_tensor@@PEBD@std@@PEAX@2@U?$_Tree_id@PEAU?$_Tree_node@U?$pair@$$CBW4vad_tensor@@PEBD@std@@PEAX@std@@@2@QEAU32@@Z
	?_Insert_node@?$_Tree_val@U?$_Tree_simple_types@U?$pair@$$CBW4vad_tensor@@W4ggml_op@@@std@@@std@@@std@@QEAAPEAU?$_Tree_node@U?$pair@$$CBW4vad_tensor@@W4ggml_op@@@std@@PEAX@2@U?$_Tree_id@PEAU?$_Tree_node@U?$pair@$$CBW4vad_tensor@@W4ggml_op@@@std@@PEAX@std@@@2@QEAU32@@Z
	?_Insert_node@?$_Tree_val@U?$_Tree_simple_types@U?$pair@$$CBW4whisper_alignment_heads_preset@@Uwhisper_aheads@@@std@@@std@@@std@@QEAAPEAU?$_Tree_node@U?$pair@$$CBW4whisper_alignment_heads_preset@@Uwhisper_aheads@@@std@@PEAX@2@U?$_Tree_id@PEAU?$_Tree_node@U?$pair@$$CBW4whisper_alignment_heads_preset@@Uwhisper_aheads@@@std@@PEAX@std@@@2@QEAU32@@Z
	?_Insert_node@?$_Tree_val@U?$_Tree_simple_types@U?$pair@QEAUggml_backend_buffer_type@@PEAUggml_context@@@std@@@std@@@std@@QEAAPEAU?$_Tree_node@U?$pair@QEAUggml_backend_buffer_type@@PEAUggml_context@@@std@@PEAX@2@U?$_Tree_id@PEAU?$_Tree_node@U?$pair@QEAUggml_backend_buffer_type@@PEAUggml_context@@@std@@PEAX@std@@@2@QEAU32@@Z
	?_Insert_x@?$vector@_NV?$allocator@_N@std@@@std@@QEAA_KV?$_Vb_const_iterator@U?$_Wrap_alloc@V?$allocator@I@std@@@std@@@2@_K@Z
	?_IsIdentityEscape@?$_Parser@PEBDDV?$regex_traits@D@std@@@std@@AEBA_NXZ
	?_Is_esc@?$_Parser@PEBDDV?$regex_traits@D@std@@@std@@AEBA_NXZ
	?_Is_wbound@?$_Matcher@PEBDDV?$regex_traits@D@std@@PEBD@std@@AEBA_NXZ
	?_Is_wbound@?$_Matcher@V?$_String_const_iterator@V?$_String_val@U?$_Simple_types@D@std@@@std@@@std@@DV?$regex_traits@D@2@V12@@std@@AEBA_NXZ
	?_Link_node@?$_Builder@PEBDDV?$regex_traits@D@std@@@std@@AEAAPEAV_Node_base@2@PEAV32@@Z
	?_Lock@?$basic_filebuf@DU?$char_traits@D@std@@@std@@UEAAXXZ
	?_Lrotate@?$_Tree_val@U?$_Tree_simple_types@H@std@@@std@@QEAAXPEAU?$_Tree_node@HPEAX@2@@Z
	?_Maklocwcs@std@@YAPEA_WPEB_W@Z
	?_Mark_final@?$_Builder@PEBDDV?$regex_traits@D@std@@@std@@QEAAXXZ
	?_Match_pat@?$_Matcher@PEBDDV?$regex_traits@D@std@@PEBD@std@@AEAA_NPEAV_Node_base@2@@Z
	?_Match_pat@?$_Matcher@V?$_String_const_iterator@V?$_String_val@U?$_Simple_types@D@std@@@std@@@std@@DV?$regex_traits@D@2@V12@@std@@AEAA_NPEAV_Node_base@2@@Z
	?_Negate@?$_Builder@PEBDDV?$regex_traits@D@std@@@std@@QEAAXXZ
	?_New_node@?$_Builder@PEBDDV?$regex_traits@D@std@@@std@@AEAAPEAV_Node_base@2@W4_Node_type@2@@Z
	?_Next@?$_Parser@PEBDDV?$regex_traits@D@std@@@std@@AEAAXXZ
	?_OctalDigits@?$_Parser@PEBDDV?$regex_traits@D@std@@@std@@AEAA_NXZ
	?_Quantifier@?$_Parser@PEBDDV?$regex_traits@D@std@@@std@@AEAAXXZ
	?_Reallocate_exactly@?$vector@DV?$allocator@D@std@@@std@@AEAAX_K@Z
	?_Reallocate_exactly@?$vector@HV?$allocator@H@std@@@std@@AEAAX_K@Z
	?_Reallocate_exactly@?$vector@MV?$allocator@M@std@@@std@@AEAAX_K@Z
	?_Reallocate_exactly@?$vector@U?$whisper_pair@NH@@V?$allocator@U?$whisper_pair@NH@@@std@@@std@@AEAAX_K@Z
	?_Reallocate_exactly@?$vector@Uvad_segment_info@whisper_state@@V?$allocator@Uvad_segment_info@whisper_state@@@std@@@std@@AEAAX_K@Z
	?_Reallocate_exactly@?$vector@Uwhisper_token_data@@V?$allocator@Uwhisper_token_data@@@std@@@std@@AEAAX_K@Z
	?_Reset_back@?$basic_filebuf@DU?$char_traits@D@std@@@std@@AEAAXXZ
	?_Resize@?$match_results@PEBDV?$allocator@V?$sub_match@PEBD@std@@@std@@@std@@QEAAXI@Z
	?_Resize@?$match_results@V?$_String_const_iterator@V?$_String_val@U?$_Simple_types@D@std@@@std@@@std@@V?$allocator@V?$sub_match@V?$_String_const_iterator@V?$_String_val@U?$_Simple_types@D@std@@@std@@@std@@@std@@@2@@std@@QEAAXI@Z
	?_Rrotate@?$_Tree_val@U?$_Tree_simple_types@H@std@@@std@@QEAAXPEAU?$_Tree_node@HPEAX@2@@Z
	?_Setlong@?$_Builder@PEBDDV?$regex_traits@D@std@@@std@@QEAAXXZ
	?_Skip@?$_Matcher@V?$_String_const_iterator@V?$_String_val@U?$_Simple_types@D@std@@@std@@@std@@DV?$regex_traits@D@2@V12@@std@@QEAA?AV?$_String_const_iterator@V?$_String_val@U?$_Simple_types@D@std@@@std@@@2@V32@0PEAV_Node_base@2@@Z
	?_Throw_bad_array_new_length@std@@YAXXZ
	?_Throw_bad_cast@std@@YAXXZ
	?_Throw_range_error@std@@YAXQEBD@Z
	?_Throw_tree_length_error@std@@YAXXZ
	?_Tidy@?$_Builder@PEBDDV?$regex_traits@D@std@@@std@@QEAAXXZ
	?_Tidy@?$basic_regex@DV?$regex_traits@D@std@@@std@@AEAAXXZ
	?_Tidy@?$vector@Uwhisper_grammar_candidate@@V?$allocator@Uwhisper_grammar_candidate@@@std@@@std@@AEAAXXZ
	?_Tidy@?$vector@Uwhisper_grammar_element@@V?$allocator@Uwhisper_grammar_element@@@std@@@std@@AEAAXXZ
	?_Tidy@?$vector@Uwhisper_token_data@@V?$allocator@Uwhisper_token_data@@@std@@@std@@AEAAXXZ
	?_Tidy@?$vector@V?$basic_string@DU?$char_traits@D@std@@V?$allocator@D@2@@std@@V?$allocator@V?$basic_string@DU?$char_traits@D@std@@V?$allocator@D@2@@std@@@2@@std@@AEAAXXZ
	?_Tidy@?$vector@V?$vector@PEBUwhisper_grammar_element@@V?$allocator@PEBUwhisper_grammar_element@@@std@@@std@@V?$allocator@V?$vector@PEBUwhisper_grammar_element@@V?$allocator@PEBUwhisper_grammar_element@@@std@@@std@@@2@@std@@AEAAXXZ
	?_Tidy@?$vector@V?$vector@Uwhisper_grammar_element@@V?$allocator@Uwhisper_grammar_element@@@std@@@std@@V?$allocator@V?$vector@Uwhisper_grammar_element@@V?$allocator@Uwhisper_grammar_element@@@std@@@std@@@2@@std@@AEAAXXZ
	?_Tidy@?$vector@Vthread@std@@V?$allocator@Vthread@std@@@2@@std@@AEAAXXZ
	?_Tidy_deallocate@?$basic_string@DU?$char_traits@D@std@@V?$allocator@D@2@@std@@AEAAXXZ
	?_Tidy_deallocate@?$basic_string@_WU?$char_traits@_W@std@@V?$allocator@_W@2@@std@@AEAAXXZ
	?_Trans@?$_Parser@PEBDDV?$regex_traits@D@std@@@std@@AEAAXXZ
	?_Trim@?$vector@_NV?$allocator@_N@std@@@std@@QEAAX_K@Z
	?_Ufill@?$vector@Uwhisper_kv_cell@@V?$allocator@Uwhisper_kv_cell@@@std@@@std@@AEAAPEAUwhisper_kv_cell@@PEAU3@_KU_Value_init_tag@2@@Z
	?_Ufill@?$vector@Uwhisper_layer_encoder@@V?$allocator@Uwhisper_layer_encoder@@@std@@@std@@AEAAPEAUwhisper_layer_encoder@@PEAU3@_KU_Value_init_tag@2@@Z
	?_Ufill@?$vector@Uwhisper_token_data@@V?$allocator@Uwhisper_token_data@@@std@@@std@@AEAAPEAUwhisper_token_data@@PEAU3@_KU_Value_init_tag@2@@Z
	?_Umove@?$vector@HV?$allocator@H@std@@@std@@AEAAPEAHPEAH00@Z
	?_Umove@?$vector@Uwhisper_token_data@@V?$allocator@Uwhisper_token_data@@@std@@@std@@AEAAPEAUwhisper_token_data@@PEAU3@00@Z
	?_Unlock@?$basic_filebuf@DU?$char_traits@D@std@@@std@@UEAAXXZ
	?_Wrapped_disjunction@?$_Parser@PEBDDV?$regex_traits@D@std@@@std@@AEAA_NXZ
	?_Xlen@?$vector@_NV?$allocator@_N@std@@@std@@QEBAXXZ
	?_Xlen_string@std@@YAXXZ
	?_Xlength@?$vector@DV?$allocator@D@std@@@std@@CAXXZ
	?_Xlength@?$vector@EV?$allocator@E@std@@@std@@CAXXZ
	?_Xlength@?$vector@HV?$allocator@H@std@@@std@@CAXXZ
	?_Xlength@?$vector@IV?$allocator@I@std@@@std@@CAXXZ
	?_Xlength@?$vector@MV?$allocator@M@std@@@std@@CAXXZ
	?_Xlength@?$vector@NV?$allocator@N@std@@@std@@CAXXZ
	?_Xlength@?$vector@PEAUggml_backend@@V?$allocator@PEAUggml_backend@@@std@@@std@@CAXXZ
	?_Xlength@?$vector@PEAUggml_backend_buffer@@V?$allocator@PEAUggml_backend_buffer@@@std@@@std@@CAXXZ
	?_Xlength@?$vector@PEAUggml_context@@V?$allocator@PEAUggml_context@@@std@@@std@@CAXXZ
	?_Xlength@?$vector@PEAUggml_tensor@@V?$allocator@PEAUggml_tensor@@@std@@@std@@CAXXZ
	?_Xlength@?$vector@PEAUwhisper_state@@V?$allocator@PEAUwhisper_state@@@std@@@std@@CAXXZ
	?_Xlength@?$vector@PEBUwhisper_grammar_element@@V?$allocator@PEBUwhisper_grammar_element@@@std@@@std@@CAXXZ
	?_Xlength@?$vector@U?$pair@PEAUggml_backend_device@@PEAUggml_backend_buffer_type@@@std@@V?$allocator@U?$pair@PEAUggml_backend_device@@PEAUggml_backend_buffer_type@@@std@@@2@@std@@CAXXZ
	?_Xlength@?$vector@U?$pair@V?$vector@IV?$allocator@I@std@@@std@@Uwhisper_partial_utf8@@@std@@V?$allocator@U?$pair@V?$vector@IV?$allocator@I@std@@@std@@Uwhisper_partial_utf8@@@std@@@2@@std@@CAXXZ
	?_Xlength@?$vector@U?$whisper_pair@NH@@V?$allocator@U?$whisper_pair@NH@@@std@@@std@@CAXXZ
	?_Xlength@?$vector@U_Grp_t@?$_Tgt_state_t@PEBD@std@@V?$allocator@U_Grp_t@?$_Tgt_state_t@PEBD@std@@@3@@std@@CAXXZ
	?_Xlength@?$vector@U_Grp_t@?$_Tgt_state_t@V?$_String_const_iterator@V?$_String_val@U?$_Simple_types@D@std@@@std@@@std@@@std@@V?$allocator@U_Grp_t@?$_Tgt_state_t@V?$_String_const_iterator@V?$_String_val@U?$_Simple_types@D@std@@@std@@@std@@@std@@@3@@std@@CAXXZ
	?_Xlength@?$vector@U_Loop_vals_t@std@@V?$allocator@U_Loop_vals_t@std@@@2@@std@@CAXXZ
	?_Xlength@?$vector@Uvad_segment_info@whisper_state@@V?$allocator@Uvad_segment_info@whisper_state@@@std@@@std@@CAXXZ
	?_Xlength@?$vector@Uwhisper_grammar_candidate@@V?$allocator@Uwhisper_grammar_candidate@@@std@@@std@@CAXXZ
	?_Xlength@?$vector@Uwhisper_grammar_element@@V?$allocator@Uwhisper_grammar_element@@@std@@@std@@CAXXZ
	?_Xlength@?$vector@Uwhisper_kv_cell@@V?$allocator@Uwhisper_kv_cell@@@std@@@std@@CAXXZ
	?_Xlength@?$vector@Uwhisper_layer_decoder@@V?$allocator@Uwhisper_layer_decoder@@@std@@@std@@CAXXZ
	?_Xlength@?$vector@Uwhisper_layer_encoder@@V?$allocator@Uwhisper_layer_encoder@@@std@@@std@@CAXXZ
	?_Xlength@?$vector@Uwhisper_segment@@V?$allocator@Uwhisper_segment@@@std@@@std@@CAXXZ
	?_Xlength@?$vector@Uwhisper_token_data@@V?$allocator@Uwhisper_token_data@@@std@@@std@@CAXXZ
	?_Xlength@?$vector@Uwhisper_vad_segment@@V?$allocator@Uwhisper_vad_segment@@@std@@@std@@CAXXZ
	?_Xlength@?$vector@V?$basic_string@DU?$char_traits@D@std@@V?$allocator@D@2@@std@@V?$allocator@V?$basic_string@DU?$char_traits@D@std@@V?$allocator@D@2@@std@@@2@@std@@CAXXZ
	?_Xlength@?$vector@V?$sub_match@PEBD@std@@V?$allocator@V?$sub_match@PEBD@std@@@2@@std@@CAXXZ
	?_Xlength@?$vector@V?$sub_match@V?$_String_const_iterator@V?$_String_val@U?$_Simple_types@D@std@@@std@@@std@@@std@@V?$allocator@V?$sub_match@V?$_String_const_iterator@V?$_String_val@U?$_Simple_types@D@std@@@std@@@std@@@std@@@2@@std@@CAXXZ
	?_Xlength@?$vector@V?$vector@PEBUwhisper_grammar_element@@V?$allocator@PEBUwhisper_grammar_element@@@std@@@std@@V?$allocator@V?$vector@PEBUwhisper_grammar_element@@V?$allocator@PEBUwhisper_grammar_element@@@std@@@std@@@2@@std@@CAXXZ
	?_Xlength@?$vector@V?$vector@Uwhisper_grammar_element@@V?$allocator@Uwhisper_grammar_element@@@std@@@std@@V?$allocator@V?$vector@Uwhisper_grammar_element@@V?$allocator@Uwhisper_grammar_element@@@std@@@std@@@2@@std@@CAXXZ
	?_Xlength@?$vector@Vthread@std@@V?$allocator@Vthread@std@@@2@@std@@CAXXZ
	?_Xran@?$_String_val@U?$_Simple_types@D@std@@@std@@SAXXZ
	?allocate@?$allocator@D@std@@QEAAPEAD_K@Z
	?allocate@?$allocator@H@std@@QEAAPEAH_K@Z
	?allocate@?$allocator@I@std@@QEAAPEAI_K@Z
	?allocate@?$allocator@M@std@@QEAAPEAM_K@Z
	?allocate@?$allocator@N@std@@QEAAPEAN_K@Z
	?allocate@?$allocator@PEAUggml_backend@@@std@@QEAAPEAPEAUggml_backend@@_K@Z
	?allocate@?$allocator@PEBUwhisper_grammar_element@@@std@@QEAAPEAPEBUwhisper_grammar_element@@_K@Z
	?allocate@?$allocator@U?$_Tree_node@U?$pair@$$CBHV?$basic_string@DU?$char_traits@D@std@@V?$allocator@D@2@@std@@@std@@PEAX@std@@@std@@QEAAPEAU?$_Tree_node@U?$pair@$$CBHV?$basic_string@DU?$char_traits@D@std@@V?$allocator@D@2@@std@@@std@@PEAX@2@_K@Z
	?allocate@?$allocator@U?$_Tree_node@U?$pair@$$CBV?$basic_string@DU?$char_traits@D@std@@V?$allocator@D@2@@std@@H@std@@PEAX@std@@@std@@QEAAPEAU?$_Tree_node@U?$pair@$$CBV?$basic_string@DU?$char_traits@D@std@@V?$allocator@D@2@@std@@H@std@@PEAX@2@_K@Z
	?allocate@?$allocator@U?$_Tree_node@U?$pair@$$CBV?$basic_string@DU?$char_traits@D@std@@V?$allocator@D@2@@std@@PEAUggml_tensor@@@std@@PEAX@std@@@std@@QEAAPEAU?$_Tree_node@U?$pair@$$CBV?$basic_string@DU?$char_traits@D@std@@V?$allocator@D@2@@std@@PEAUggml_tensor@@@std@@PEAX@2@_K@Z
	?allocate@?$allocator@U?$_Tree_node@U?$pair@QEAUggml_backend_buffer_type@@PEAUggml_context@@@std@@PEAX@std@@@std@@QEAAPEAU?$_Tree_node@U?$pair@QEAUggml_backend_buffer_type@@PEAUggml_context@@@std@@PEAX@2@_K@Z
	?allocate@?$allocator@U?$pair@PEAUggml_backend_device@@PEAUggml_backend_buffer_type@@@std@@@std@@QEAAPEAU?$pair@PEAUggml_backend_device@@PEAUggml_backend_buffer_type@@@2@_K@Z
	?allocate@?$allocator@U?$whisper_pair@NH@@@std@@QEAAPEAU?$whisper_pair@NH@@_K@Z
	?allocate@?$allocator@U_Grp_t@?$_Tgt_state_t@PEBD@std@@@std@@QEAAPEAU_Grp_t@?$_Tgt_state_t@PEBD@2@_K@Z
	?allocate@?$allocator@U_Grp_t@?$_Tgt_state_t@V?$_String_const_iterator@V?$_String_val@U?$_Simple_types@D@std@@@std@@@std@@@std@@@std@@QEAAPEAU_Grp_t@?$_Tgt_state_t@V?$_String_const_iterator@V?$_String_val@U?$_Simple_types@D@std@@@std@@@std@@@2@_K@Z
	?allocate@?$allocator@Uvad_segment_info@whisper_state@@@std@@QEAAPEAUvad_segment_info@whisper_state@@_K@Z
	?allocate@?$allocator@Uwhisper_grammar_candidate@@@std@@QEAAPEAUwhisper_grammar_candidate@@_K@Z
	?allocate@?$allocator@Uwhisper_grammar_element@@@std@@QEAAPEAUwhisper_grammar_element@@_K@Z
	?allocate@?$allocator@Uwhisper_token_data@@@std@@QEAAPEAUwhisper_token_data@@_K@Z
	?allocate@?$allocator@V?$basic_string@DU?$char_traits@D@std@@V?$allocator@D@2@@std@@@std@@QEAAPEAV?$basic_string@DU?$char_traits@D@std@@V?$allocator@D@2@@2@_K@Z
	?allocate@?$allocator@V?$vector@PEBUwhisper_grammar_element@@V?$allocator@PEBUwhisper_grammar_element@@@std@@@std@@@std@@QEAAPEAV?$vector@PEBUwhisper_grammar_element@@V?$allocator@PEBUwhisper_grammar_element@@@std@@@2@_K@Z
	?allocate@?$allocator@_W@std@@QEAAPEA_W_K@Z
	?append@?$basic_string@DU?$char_traits@D@std@@V?$allocator@D@2@@std@@QEAAAEAV12@QEBD_K@Z
	?append@?$basic_string@_WU?$char_traits@_W@std@@V?$allocator@_W@2@@std@@QEAAAEAV12@_K_W@Z
	?assign@?$basic_string@DU?$char_traits@D@std@@V?$allocator@D@2@@std@@QEAAAEAV12@QEBD@Z
	?assign@?$basic_string@DU?$char_traits@D@std@@V?$allocator@D@2@@std@@QEAAAEAV12@QEBD_K@Z
	?assign@?$vector@NV?$allocator@N@std@@@std@@QEAAX_KAEBN@Z
	?at@?$map@V?$basic_string@DU?$char_traits@D@std@@V?$allocator@D@2@@std@@HU?$less@V?$basic_string@DU?$char_traits@D@std@@V?$allocator@D@2@@std@@@2@V?$allocator@U?$pair@$$CBV?$basic_string@DU?$char_traits@D@std@@V?$allocator@D@2@@std@@H@std@@@2@@std@@QEBAAEBHAEBV?$basic_string@DU?$char_traits@D@std@@V?$allocator@D@2@@2@@Z
	?at@?$map@W4asr_system@@V?$map@W4asr_tensor@@PEBDU?$less@W4asr_tensor@@@std@@V?$allocator@U?$pair@$$CBW4asr_tensor@@PEBD@std@@@3@@std@@U?$less@W4asr_system@@@3@V?$allocator@U?$pair@$$CBW4asr_system@@V?$map@W4asr_tensor@@PEBDU?$less@W4asr_tensor@@@std@@V?$allocator@U?$pair@$$CBW4asr_tensor@@PEBD@std@@@3@@std@@@std@@@3@@std@@QEBAAEBV?$map@W4asr_tensor@@PEBDU?$less@W4asr_tensor@@@std@@V?$allocator@U?$pair@$$CBW4asr_tensor@@PEBD@std@@@3@@2@AEBW4asr_system@@@Z
	?at@?$map@W4asr_tensor@@PEBDU?$less@W4asr_tensor@@@std@@V?$allocator@U?$pair@$$CBW4asr_tensor@@PEBD@std@@@3@@std@@QEBAAEBQEBDAEBW4asr_tensor@@@Z
	?at@?$map@W4vad_tensor@@PEBDU?$less@W4vad_tensor@@@std@@V?$allocator@U?$pair@$$CBW4vad_tensor@@PEBD@std@@@3@@std@@QEBAAEBQEBDAEBW4vad_tensor@@@Z
	?c_str@?$basic_string@DU?$char_traits@D@std@@V?$allocator@D@2@@std@@QEBAPEBDXZ
	?clear@?$_Tree@V?$_Tset_traits@HU?$less@H@std@@V?$allocator@H@2@$0A@@std@@@std@@QEAAXXZ
	?close@?$basic_filebuf@DU?$char_traits@D@std@@@std@@QEAAPEAV12@XZ
	?compare@?$basic_string@DU?$char_traits@D@std@@V?$allocator@D@2@@std@@QEBAHAEBV12@@Z
	?copy@?$_Char_traits@DH@std@@SAPEADQEADQEBD_K@Z
	?data@?$basic_string@DU?$char_traits@D@std@@V?$allocator@D@2@@std@@QEBAPEBDXZ
	?deallocate@?$allocator@D@std@@QEAAXQEAD_K@Z
	?deallocate@?$allocator@E@std@@QEAAXQEAE_K@Z
	?deallocate@?$allocator@H@std@@QEAAXQEAH_K@Z
	?deallocate@?$allocator@I@std@@QEAAXQEAI_K@Z
	?deallocate@?$allocator@M@std@@QEAAXQEAM_K@Z
	?deallocate@?$allocator@N@std@@QEAAXQEAN_K@Z
	?deallocate@?$allocator@PEAUggml_backend@@@std@@QEAAXQEAPEAUggml_backend@@_K@Z
	?deallocate@?$allocator@PEAUggml_backend_buffer@@@std@@QEAAXQEAPEAUggml_backend_buffer@@_K@Z
	?deallocate@?$allocator@PEAUggml_context@@@std@@QEAAXQEAPEAUggml_context@@_K@Z
	?deallocate@?$allocator@PEAUggml_tensor@@@std@@QEAAXQEAPEAUggml_tensor@@_K@Z
	?deallocate@?$allocator@PEAUwhisper_state@@@std@@QEAAXQEAPEAUwhisper_state@@_K@Z
	?deallocate@?$allocator@PEBUwhisper_grammar_element@@@std@@QEAAXQEAPEBUwhisper_grammar_element@@_K@Z
	?deallocate@?$allocator@U?$pair@PEAUggml_backend_device@@PEAUggml_backend_buffer_type@@@std@@@std@@QEAAXQEAU?$pair@PEAUggml_backend_device@@PEAUggml_backend_buffer_type@@@2@_K@Z
	?deallocate@?$allocator@U?$pair@V?$vector@IV?$allocator@I@std@@@std@@Uwhisper_partial_utf8@@@std@@@std@@QEAAXQEAU?$pair@V?$vector@IV?$allocator@I@std@@@std@@Uwhisper_partial_utf8@@@2@_K@Z
	?deallocate@?$allocator@U?$whisper_pair@NH@@@std@@QEAAXQEAU?$whisper_pair@NH@@_K@Z
	?deallocate@?$allocator@U_Grp_t@?$_Tgt_state_t@PEBD@std@@@std@@QEAAXQEAU_Grp_t@?$_Tgt_state_t@PEBD@2@_K@Z
	?deallocate@?$allocator@U_Grp_t@?$_Tgt_state_t@V?$_String_const_iterator@V?$_String_val@U?$_Simple_types@D@std@@@std@@@std@@@std@@@std@@QEAAXQEAU_Grp_t@?$_Tgt_state_t@V?$_String_const_iterator@V?$_String_val@U?$_Simple_types@D@std@@@std@@@std@@@2@_K@Z
	?deallocate@?$allocator@U_Loop_vals_t@std@@@std@@QEAAXQEAU_Loop_vals_t@2@_K@Z
	?deallocate@?$allocator@Uvad_segment_info@whisper_state@@@std@@QEAAXQEAUvad_segment_info@whisper_state@@_K@Z
	?deallocate@?$allocator@Uwhisper_grammar_candidate@@@std@@QEAAXQEAUwhisper_grammar_candidate@@_K@Z
	?deallocate@?$allocator@Uwhisper_grammar_element@@@std@@QEAAXQEAUwhisper_grammar_element@@_K@Z
	?deallocate@?$allocator@Uwhisper_kv_cell@@@std@@QEAAXQEAUwhisper_kv_cell@@_K@Z
	?deallocate@?$allocator@Uwhisper_layer_decoder@@@std@@QEAAXQEAUwhisper_layer_decoder@@_K@Z
	?deallocate@?$allocator@Uwhisper_layer_encoder@@@std@@QEAAXQEAUwhisper_layer_encoder@@_K@Z
	?deallocate@?$allocator@Uwhisper_segment@@@std@@QEAAXQEAUwhisper_segment@@_K@Z
	?deallocate@?$allocator@Uwhisper_token_data@@@std@@QEAAXQEAUwhisper_token_data@@_K@Z
	?deallocate@?$allocator@Uwhisper_vad_segment@@@std@@QEAAXQEAUwhisper_vad_segment@@_K@Z
	?deallocate@?$allocator@V?$basic_string@DU?$char_traits@D@std@@V?$allocator@D@2@@std@@@std@@QEAAXQEAV?$basic_string@DU?$char_traits@D@std@@V?$allocator@D@2@@2@_K@Z
	?deallocate@?$allocator@V?$sub_match@PEBD@std@@@std@@QEAAXQEAV?$sub_match@PEBD@2@_K@Z
	?deallocate@?$allocator@V?$sub_match@V?$_String_const_iterator@V?$_String_val@U?$_Simple_types@D@std@@@std@@@std@@@std@@@std@@QEAAXQEAV?$sub_match@V?$_String_const_iterator@V?$_String_val@U?$_Simple_types@D@std@@@std@@@std@@@2@_K@Z
	?deallocate@?$allocator@V?$vector@PEBUwhisper_grammar_element@@V?$allocator@PEBUwhisper_grammar_element@@@std@@@std@@@std@@QEAAXQEAV?$vector@PEBUwhisper_grammar_element@@V?$allocator@PEBUwhisper_grammar_element@@@std@@@2@_K@Z
	?do_always_noconv@?$codecvt_utf8@_W$0BAPPPP@$0A@@std@@MEBA_NXZ
	?do_compare@?$collate@D@std@@MEBAHPEBD000@Z
	?do_encoding@?$codecvt_utf8@_W$0BAPPPP@$0A@@std@@MEBAHXZ
	?do_hash@?$collate@D@std@@MEBAJPEBD0@Z
	?do_in@?$codecvt_utf8@_W$0BAPPPP@$0A@@std@@MEBAHAEAU_Mbstatet@@PEBD1AEAPEBDPEA_W3AEAPEA_W@Z
	?do_length@?$codecvt_utf8@_W$0BAPPPP@$0A@@std@@MEBAHAEAU_Mbstatet@@PEBD1_K@Z
	?do_max_length@?$codecvt_utf8@_W$0BAPPPP@$0A@@std@@MEBAHXZ
	?do_out@?$codecvt_utf8@_W$0BAPPPP@$0A@@std@@MEBAHAEAU_Mbstatet@@PEB_W1AEAPEB_WPEAD3AEAPEAD@Z
	?do_transform@?$collate@D@std@@MEBA?AV?$basic_string@DU?$char_traits@D@std@@V?$allocator@D@2@@2@PEBD0@Z
	?do_unshift@?$codecvt_utf8@_W$0BAPPPP@$0A@@std@@MEBAHAEAU_Mbstatet@@PEAD1AEAPEAD@Z
	?erase@?$_Tree@V?$_Tset_traits@HU?$less@H@std@@V?$allocator@H@2@$0A@@std@@@std@@QEAA_KAEBH@Z
	?erase@?$vector@_NV?$allocator@_N@std@@@std@@QEAA?AV?$_Vb_iterator@U?$_Wrap_alloc@V?$allocator@I@std@@@std@@@2@V?$_Vb_const_iterator@U?$_Wrap_alloc@V?$allocator@I@std@@@std@@@2@0@Z
	?find@?$_Tree@V?$_Tmap_traits@V?$basic_string@DU?$char_traits@D@std@@V?$allocator@D@2@@std@@HU?$less@V?$basic_string@DU?$char_traits@D@std@@V?$allocator@D@2@@std@@@2@V?$allocator@U?$pair@$$CBV?$basic_string@DU?$char_traits@D@std@@V?$allocator@D@2@@std@@H@std@@@2@$0A@@std@@@std@@QEBA?AV?$_Tree_const_iterator@V?$_Tree_val@U?$_Tree_simple_types@U?$pair@$$CBV?$basic_string@DU?$char_traits@D@std@@V?$allocator@D@2@@std@@H@std@@@std@@@std@@@2@AEBV?$basic_string@DU?$char_traits@D@std@@V?$allocator@D@2@@2@@Z
	?find@?$_Tree@V?$_Tmap_traits@V?$basic_string@DU?$char_traits@D@std@@V?$allocator@D@2@@std@@PEAUggml_tensor@@U?$less@V?$basic_string@DU?$char_traits@D@std@@V?$allocator@D@2@@std@@@2@V?$allocator@U?$pair@$$CBV?$basic_string@DU?$char_traits@D@std@@V?$allocator@D@2@@std@@PEAUggml_tensor@@@std@@@2@$0A@@std@@@std@@QEAA?AV?$_Tree_iterator@V?$_Tree_val@U?$_Tree_simple_types@U?$pair@$$CBV?$basic_string@DU?$char_traits@D@std@@V?$allocator@D@2@@std@@PEAUggml_tensor@@@std@@@std@@@std@@@2@AEBV?$basic_string@DU?$char_traits@D@std@@V?$allocator@D@2@@2@@Z
	?from_bytes@?$wstring_convert@V?$codecvt_utf8@_W$0BAPPPP@$0A@@std@@_WV?$allocator@_W@2@V?$allocator@D@2@@std@@QEAA?AV?$basic_string@_WU?$char_traits@_W@std@@V?$allocator@_W@2@@2@PEBD0@Z
	?imbue@?$basic_filebuf@DU?$char_traits@D@std@@@std@@MEAAXAEBVlocale@2@@Z
	?name@locale@std@@QEBA?AV?$basic_string@DU?$char_traits@D@std@@V?$allocator@D@2@@2@XZ
	?overflow@?$basic_filebuf@DU?$char_traits@D@std@@@std@@MEAAHH@Z
	?pbackfail@?$basic_filebuf@DU?$char_traits@D@std@@@std@@MEAAHH@Z
	?push_back@?$vector@Uwhisper_segment@@V?$allocator@Uwhisper_segment@@@std@@@std@@QEAAX$$QEAUwhisper_segment@@@Z
	?push_back@?$vector@Uwhisper_token_data@@V?$allocator@Uwhisper_token_data@@@std@@@std@@QEAAXAEBUwhisper_token_data@@@Z
	?reserve@?$vector@MV?$allocator@M@std@@@std@@QEAAX_K@Z
	?reserve@?$vector@U?$whisper_pair@NH@@V?$allocator@U?$whisper_pair@NH@@@std@@@std@@QEAAX_K@Z
	?reserve@?$vector@Uwhisper_token_data@@V?$allocator@Uwhisper_token_data@@@std@@@std@@QEAAX_K@Z
	?resize@?$vector@DV?$allocator@D@std@@@std@@QEAAX_K@Z
	?resize@?$vector@EV?$allocator@E@std@@@std@@QEAAX_K@Z
	?resize@?$vector@HV?$allocator@H@std@@@std@@QEAAX_K@Z
	?resize@?$vector@MV?$allocator@M@std@@@std@@QEAAX_K@Z
	?resize@?$vector@U_Loop_vals_t@std@@V?$allocator@U_Loop_vals_t@std@@@2@@std@@QEAAX_K@Z
	?resize@?$vector@Uwhisper_layer_decoder@@V?$allocator@Uwhisper_layer_decoder@@@std@@@std@@QEAAX_K@Z
	?resize@?$vector@Uwhisper_token_data@@V?$allocator@Uwhisper_token_data@@@std@@@std@@QEAAX_K@Z
	?resize@?$vector@_NV?$allocator@_N@std@@@std@@QEAAX_K_N@Z
	?seekoff@?$basic_filebuf@DU?$char_traits@D@std@@@std@@MEAA?AV?$fpos@U_Mbstatet@@@2@_JHH@Z
	?seekpos@?$basic_filebuf@DU?$char_traits@D@std@@@std@@MEAA?AV?$fpos@U_Mbstatet@@@2@V32@H@Z
	?setbuf@?$basic_filebuf@DU?$char_traits@D@std@@@std@@MEAAPEAV?$basic_streambuf@DU?$char_traits@D@std@@@2@PEAD_J@Z
	?size@?$vector@Uwhisper_segment@@V?$allocator@Uwhisper_segment@@@std@@@std@@QEBA_KXZ
	?size@?$vector@Uwhisper_token_data@@V?$allocator@Uwhisper_token_data@@@std@@@std@@QEBA_KXZ
	?sync@?$basic_filebuf@DU?$char_traits@D@std@@@std@@MEAAHXZ
	?to_string@std@@YA?AV?$basic_string@DU?$char_traits@D@std@@V?$allocator@D@2@@1@H@Z
	?translate@?$_Regex_traits@D@std@@QEBADD@Z
	?uflow@?$basic_filebuf@DU?$char_traits@D@std@@@std@@MEAAHXZ
	?underflow@?$basic_filebuf@DU?$char_traits@D@std@@@std@@MEAAHXZ
	?what@exception@std@@UEBAPEBDXZ
	?xsgetn@?$basic_filebuf@DU?$char_traits@D@std@@@std@@MEAA_JPEAD_J@Z
	?xsputn@?$basic_filebuf@DU?$char_traits@D@std@@@std@@MEAA_JPEBD_J@Z
	__local_stdio_printf_options
	printf
	snprintf
	vsnprintf
	whisper_bench_ggml_mul_mat
	whisper_bench_ggml_mul_mat_str
	whisper_bench_memcpy
	whisper_bench_memcpy_str
	whisper_context_default_params
	whisper_context_default_params_by_ref
	whisper_ctx_init_openvino_encoder
	whisper_ctx_init_openvino_encoder_with_state
	whisper_decode
	whisper_decode_with_state
	whisper_encode
	whisper_encode_with_state
	whisper_free
	whisper_free_context_params
	whisper_free_params
	whisper_free_state
	whisper_full
	whisper_full_default_params
	whisper_full_default_params_by_ref
	whisper_full_get_segment_no_speech_prob
	whisper_full_get_segment_no_speech_prob_from_state
	whisper_full_get_segment_speaker_turn_next
	whisper_full_get_segment_speaker_turn_next_from_state
	whisper_full_get_segment_t0
	whisper_full_get_segment_t0_from_state
	whisper_full_get_segment_t1
	whisper_full_get_segment_t1_from_state
	whisper_full_get_segment_text
	whisper_full_get_segment_text_from_state
	whisper_full_get_token_data
	whisper_full_get_token_data_from_state
	whisper_full_get_token_id
	whisper_full_get_token_id_from_state
	whisper_full_get_token_p
	whisper_full_get_token_p_from_state
	whisper_full_get_token_text
	whisper_full_get_token_text_from_state
	whisper_full_lang_id
	whisper_full_lang_id_from_state
	whisper_full_n_segments
	whisper_full_n_segments_from_state
	whisper_full_n_tokens
	whisper_full_n_tokens_from_state
	whisper_full_parallel
	whisper_full_with_state
	whisper_get_logits
	whisper_get_logits_from_state
	whisper_get_timings
	whisper_init
	whisper_init_from_buffer
	whisper_init_from_buffer_no_state
	whisper_init_from_buffer_with_params
	whisper_init_from_buffer_with_params_no_state
	whisper_init_from_file
	whisper_init_from_file_no_state
	whisper_init_from_file_with_params
	whisper_init_from_file_with_params_no_state
	whisper_init_no_state
	whisper_init_state
	whisper_init_with_params
	whisper_init_with_params_no_state
	whisper_is_multilingual
	whisper_lang_auto_detect
	whisper_lang_auto_detect_with_state
	whisper_lang_id
	whisper_lang_max_id
	whisper_lang_str
	whisper_lang_str_full
	whisper_log_set
	whisper_model_ftype
	whisper_model_n_audio_ctx
	whisper_model_n_audio_head
	whisper_model_n_audio_layer
	whisper_model_n_audio_state
	whisper_model_n_mels
	whisper_model_n_text_ctx
	whisper_model_n_text_head
	whisper_model_n_text_layer
	whisper_model_n_text_state
	whisper_model_n_vocab
	whisper_model_type
	whisper_model_type_readable
	whisper_n_audio_ctx
	whisper_n_len
	whisper_n_len_from_state
	whisper_n_text_ctx
	whisper_n_vocab
	whisper_pcm_to_mel
	whisper_pcm_to_mel_with_state
	whisper_print_system_info
	whisper_print_timings
	whisper_reset_timings
	whisper_set_mel
	whisper_set_mel_with_state
	whisper_token_beg
	whisper_token_count
	whisper_token_eot
	whisper_token_lang
	whisper_token_nosp
	whisper_token_not
	whisper_token_prev
	whisper_token_solm
	whisper_token_sot
	whisper_token_to_str
	whisper_token_transcribe
	whisper_token_translate
	whisper_tokenize
	whisper_vad_default_context_params
	whisper_vad_default_params
	whisper_vad_detect_speech
	whisper_vad_free
	whisper_vad_free_segments
	whisper_vad_init_from_file_with_params
	whisper_vad_init_with_params
	whisper_vad_n_probs
	whisper_vad_probs
	whisper_vad_segments_from_probs
	whisper_vad_segments_from_samples
	whisper_vad_segments_get_segment_t0
	whisper_vad_segments_get_segment_t1
	whisper_vad_segments_n_segments
